<unlinkable>.NewOOPInventory STEXT size=122 args=0x8 locals=0x28 funcid=0x0 align=0x0
	0x0000 00000 (/home/ruben/Workspace/go/inventory_benchmark/inventory.go:22)	TEXT	<unlinkable>.NewOOPInventory(SB), ABIInternal, $40-8
	0x0000 00000 (/home/ruben/Workspace/go/inventory_benchmark/inventory.go:22)	CMPQ	SP, 16(R14)
	0x0004 00004 (/home/ruben/Workspace/go/inventory_benchmark/inventory.go:22)	PCDATA	$0, $-2
	0x0004 00004 (/home/ruben/Workspace/go/inventory_benchmark/inventory.go:22)	JLS	105
	0x0006 00006 (/home/ruben/Workspace/go/inventory_benchmark/inventory.go:22)	PCDATA	$0, $-1
	0x0006 00006 (/home/ruben/Workspace/go/inventory_benchmark/inventory.go:22)	PUSHQ	BP
	0x0007 00007 (/home/ruben/Workspace/go/inventory_benchmark/inventory.go:22)	MOVQ	SP, BP
	0x000a 00010 (/home/ruben/Workspace/go/inventory_benchmark/inventory.go:22)	SUBQ	$32, SP
	0x000e 00014 (/home/ruben/Workspace/go/inventory_benchmark/inventory.go:22)	FUNCDATA	$0, gclocals·J5F+7Qw7O7ve2QcWC7DpeQ==(SB)
	0x000e 00014 (/home/ruben/Workspace/go/inventory_benchmark/inventory.go:22)	FUNCDATA	$1, gclocals·CnDyI2HjYXFz19SsOj98tw==(SB)
	0x000e 00014 (/home/ruben/Workspace/go/inventory_benchmark/inventory.go:22)	FUNCDATA	$5, <unlinkable>.NewOOPInventory.arginfo1(SB)
	0x000e 00014 (/home/ruben/Workspace/go/inventory_benchmark/inventory.go:22)	FUNCDATA	$6, <unlinkable>.NewOOPInventory.argliveinfo(SB)
	0x000e 00014 (/home/ruben/Workspace/go/inventory_benchmark/inventory.go:22)	PCDATA	$3, $1
	0x000e 00014 (/home/ruben/Workspace/go/inventory_benchmark/inventory.go:23)	MOVQ	AX, <unlinkable>.size+48(SP)
	0x0013 00019 (/home/ruben/Workspace/go/inventory_benchmark/inventory.go:23)	PCDATA	$3, $-1
	0x0013 00019 (/home/ruben/Workspace/go/inventory_benchmark/inventory.go:24)	MOVQ	AX, BX
	0x0016 00022 (/home/ruben/Workspace/go/inventory_benchmark/inventory.go:24)	MOVQ	BX, CX
	0x0019 00025 (/home/ruben/Workspace/go/inventory_benchmark/inventory.go:24)	LEAQ	type:<unlinkable>.OOPItem(SB), AX
	0x0020 00032 (/home/ruben/Workspace/go/inventory_benchmark/inventory.go:24)	PCDATA	$1, $0
	0x0020 00032 (/home/ruben/Workspace/go/inventory_benchmark/inventory.go:24)	CALL	runtime.makeslice(SB)
	0x0025 00037 (/home/ruben/Workspace/go/inventory_benchmark/inventory.go:24)	MOVQ	AX, <unlinkable>..autotmp_4+24(SP)
	0x002a 00042 (/home/ruben/Workspace/go/inventory_benchmark/inventory.go:23)	LEAQ	type:<unlinkable>.OOPInventory(SB), AX
	0x0031 00049 (/home/ruben/Workspace/go/inventory_benchmark/inventory.go:23)	PCDATA	$1, $1
	0x0031 00049 (/home/ruben/Workspace/go/inventory_benchmark/inventory.go:23)	CALL	runtime.newobject(SB)
	0x0036 00054 (/home/ruben/Workspace/go/inventory_benchmark/inventory.go:24)	MOVQ	<unlinkable>.size+48(SP), DX
	0x003b 00059 (/home/ruben/Workspace/go/inventory_benchmark/inventory.go:24)	MOVQ	DX, 8(AX)
	0x003f 00063 (/home/ruben/Workspace/go/inventory_benchmark/inventory.go:24)	MOVQ	DX, 16(AX)
	0x0043 00067 (/home/ruben/Workspace/go/inventory_benchmark/inventory.go:24)	CMPL	runtime.writeBarrier(SB), $0
	0x004a 00074 (/home/ruben/Workspace/go/inventory_benchmark/inventory.go:24)	PCDATA	$0, $-2
	0x004a 00074 (/home/ruben/Workspace/go/inventory_benchmark/inventory.go:24)	JNE	83
	0x004c 00076 (/home/ruben/Workspace/go/inventory_benchmark/inventory.go:24)	MOVQ	<unlinkable>..autotmp_4+24(SP), CX
	0x0051 00081 (/home/ruben/Workspace/go/inventory_benchmark/inventory.go:24)	JMP	96
	0x0053 00083 (/home/ruben/Workspace/go/inventory_benchmark/inventory.go:24)	CALL	runtime.gcWriteBarrier1(SB)
	0x0058 00088 (/home/ruben/Workspace/go/inventory_benchmark/inventory.go:24)	MOVQ	<unlinkable>..autotmp_4+24(SP), CX
	0x005d 00093 (/home/ruben/Workspace/go/inventory_benchmark/inventory.go:24)	MOVQ	CX, (R11)
	0x0060 00096 (/home/ruben/Workspace/go/inventory_benchmark/inventory.go:24)	MOVQ	CX, (AX)
	0x0063 00099 (/home/ruben/Workspace/go/inventory_benchmark/inventory.go:23)	PCDATA	$0, $-1
	0x0063 00099 (/home/ruben/Workspace/go/inventory_benchmark/inventory.go:23)	ADDQ	$32, SP
	0x0067 00103 (/home/ruben/Workspace/go/inventory_benchmark/inventory.go:23)	POPQ	BP
	0x0068 00104 (/home/ruben/Workspace/go/inventory_benchmark/inventory.go:23)	RET
	0x0069 00105 (/home/ruben/Workspace/go/inventory_benchmark/inventory.go:23)	NOP
	0x0069 00105 (/home/ruben/Workspace/go/inventory_benchmark/inventory.go:22)	PCDATA	$1, $-1
	0x0069 00105 (/home/ruben/Workspace/go/inventory_benchmark/inventory.go:22)	PCDATA	$0, $-2
	0x0069 00105 (/home/ruben/Workspace/go/inventory_benchmark/inventory.go:22)	MOVQ	AX, 8(SP)
	0x006e 00110 (/home/ruben/Workspace/go/inventory_benchmark/inventory.go:22)	CALL	runtime.morestack_noctxt(SB)
	0x0073 00115 (/home/ruben/Workspace/go/inventory_benchmark/inventory.go:22)	PCDATA	$0, $-1
	0x0073 00115 (/home/ruben/Workspace/go/inventory_benchmark/inventory.go:22)	MOVQ	8(SP), AX
	0x0078 00120 (/home/ruben/Workspace/go/inventory_benchmark/inventory.go:22)	JMP	0
	0x0000 49 3b 66 10 76 63 55 48 89 e5 48 83 ec 20 48 89  I;f.vcUH..H.. H.
	0x0010 44 24 30 48 89 c3 48 89 d9 48 8d 05 00 00 00 00  D$0H..H..H......
	0x0020 e8 00 00 00 00 48 89 44 24 18 48 8d 05 00 00 00  .....H.D$.H.....
	0x0030 00 e8 00 00 00 00 48 8b 54 24 30 48 89 50 08 48  ......H.T$0H.P.H
	0x0040 89 50 10 83 3d 00 00 00 00 00 75 07 48 8b 4c 24  .P..=.....u.H.L$
	0x0050 18 eb 0d e8 00 00 00 00 48 8b 4c 24 18 49 89 0b  ........H.L$.I..
	0x0060 48 89 08 48 83 c4 20 5d c3 48 89 44 24 08 e8 00  H..H.. ].H.D$...
	0x0070 00 00 00 48 8b 44 24 08 eb 86                    ...H.D$...
	rel 28+4 t=R_PCREL type:<unlinkable>.OOPItem+0
	rel 33+4 t=R_CALL runtime.makeslice+0
	rel 45+4 t=R_PCREL type:<unlinkable>.OOPInventory+0
	rel 50+4 t=R_CALL runtime.newobject+0
	rel 69+4 t=R_PCREL runtime.writeBarrier+-1
	rel 84+4 t=R_CALL runtime.gcWriteBarrier1+0
	rel 111+4 t=R_CALL runtime.morestack_noctxt+0
<unlinkable>.(*OOPItem).TotalWeight STEXT nosplit size=12 args=0x8 locals=0x0 funcid=0x0 align=0x0
	0x0000 00000 (/home/ruben/Workspace/go/inventory_benchmark/inventory.go:40)	TEXT	<unlinkable>.(*OOPItem).TotalWeight(SB), NOSPLIT|NOFRAME|ABIInternal, $0-8
	0x0000 00000 (/home/ruben/Workspace/go/inventory_benchmark/inventory.go:40)	FUNCDATA	$0, gclocals·wgcWObbY2HYnK2SU/U22lA==(SB)
	0x0000 00000 (/home/ruben/Workspace/go/inventory_benchmark/inventory.go:40)	FUNCDATA	$1, gclocals·J5F+7Qw7O7ve2QcWC7DpeQ==(SB)
	0x0000 00000 (/home/ruben/Workspace/go/inventory_benchmark/inventory.go:40)	FUNCDATA	$5, <unlinkable>.(*OOPItem).TotalWeight.arginfo1(SB)
	0x0000 00000 (/home/ruben/Workspace/go/inventory_benchmark/inventory.go:40)	FUNCDATA	$6, <unlinkable>.(*OOPItem).TotalWeight.argliveinfo(SB)
	0x0000 00000 (/home/ruben/Workspace/go/inventory_benchmark/inventory.go:40)	PCDATA	$3, $1
	0x0000 00000 (/home/ruben/Workspace/go/inventory_benchmark/inventory.go:41)	MOVQ	(AX), CX
	0x0003 00003 (/home/ruben/Workspace/go/inventory_benchmark/inventory.go:41)	MOVQ	8(AX), AX
	0x0007 00007 (/home/ruben/Workspace/go/inventory_benchmark/inventory.go:41)	IMULQ	CX, AX
	0x000b 00011 (/home/ruben/Workspace/go/inventory_benchmark/inventory.go:41)	RET
	0x0000 48 8b 08 48 8b 40 08 48 0f af c1 c3              H..H.@.H....
<unlinkable>.(*OOPInventory).TotalWeightOfIndividualItems_RangeLoopValue STEXT size=108 args=0x8 locals=0x5838 funcid=0x0 align=0x0
	0x0000 00000 (/home/ruben/Workspace/go/inventory_benchmark/inventory.go:44)	TEXT	<unlinkable>.(*OOPInventory).TotalWeightOfIndividualItems_RangeLoopValue(SB), ABIInternal, $22584-8
	0x0000 00000 (/home/ruben/Workspace/go/inventory_benchmark/inventory.go:44)	MOVQ	SP, R12
	0x0003 00003 (/home/ruben/Workspace/go/inventory_benchmark/inventory.go:44)	PCDATA	$0, $-2
	0x0003 00003 (/home/ruben/Workspace/go/inventory_benchmark/inventory.go:44)	SUBQ	$22456, R12
	0x000a 00010 (/home/ruben/Workspace/go/inventory_benchmark/inventory.go:44)	JCS	86
	0x000c 00012 (/home/ruben/Workspace/go/inventory_benchmark/inventory.go:44)	CMPQ	R12, 16(R14)
	0x0010 00016 (/home/ruben/Workspace/go/inventory_benchmark/inventory.go:44)	JLS	86
	0x0012 00018 (/home/ruben/Workspace/go/inventory_benchmark/inventory.go:44)	PCDATA	$0, $-1
	0x0012 00018 (/home/ruben/Workspace/go/inventory_benchmark/inventory.go:44)	PUSHQ	BP
	0x0013 00019 (/home/ruben/Workspace/go/inventory_benchmark/inventory.go:44)	MOVQ	SP, BP
	0x0016 00022 (/home/ruben/Workspace/go/inventory_benchmark/inventory.go:44)	SUBQ	$22576, SP
	0x001d 00029 (/home/ruben/Workspace/go/inventory_benchmark/inventory.go:44)	FUNCDATA	$0, gclocals·wgcWObbY2HYnK2SU/U22lA==(SB)
	0x001d 00029 (/home/ruben/Workspace/go/inventory_benchmark/inventory.go:44)	FUNCDATA	$1, gclocals·7k5JwPhlpxxuv0sfCh+TsQ==(SB)
	0x001d 00029 (/home/ruben/Workspace/go/inventory_benchmark/inventory.go:44)	FUNCDATA	$5, <unlinkable>.(*OOPInventory).TotalWeightOfIndividualItems_RangeLoopValue.arginfo1(SB)
	0x001d 00029 (/home/ruben/Workspace/go/inventory_benchmark/inventory.go:44)	FUNCDATA	$6, <unlinkable>.(*OOPInventory).TotalWeightOfIndividualItems_RangeLoopValue.argliveinfo(SB)
	0x001d 00029 (/home/ruben/Workspace/go/inventory_benchmark/inventory.go:44)	PCDATA	$3, $1
	0x001d 00029 (/home/ruben/Workspace/go/inventory_benchmark/inventory.go:46)	MOVQ	(AX), DX
	0x0020 00032 (/home/ruben/Workspace/go/inventory_benchmark/inventory.go:46)	MOVQ	8(AX), BX
	0x0024 00036 (/home/ruben/Workspace/go/inventory_benchmark/inventory.go:46)	XORL	AX, AX
	0x0026 00038 (/home/ruben/Workspace/go/inventory_benchmark/inventory.go:46)	JMP	72
	0x0028 00040 (/home/ruben/Workspace/go/inventory_benchmark/inventory.go:46)	LEAQ	<unlinkable>.s(SP), DI
	0x002c 00044 (/home/ruben/Workspace/go/inventory_benchmark/inventory.go:46)	MOVQ	DX, SI
	0x002f 00047 (/home/ruben/Workspace/go/inventory_benchmark/inventory.go:46)	MOVL	$2822, CX
	0x0034 00052 (/home/ruben/Workspace/go/inventory_benchmark/inventory.go:46)	REP
	0x0035 00053 (/home/ruben/Workspace/go/inventory_benchmark/inventory.go:46)	MOVSQ
	0x0037 00055 (/home/ruben/Workspace/go/inventory_benchmark/inventory.go:47)	MOVQ	<unlinkable>.s(SP), R8
	0x003b 00059 (/home/ruben/Workspace/go/inventory_benchmark/inventory.go:46)	ADDQ	$22576, DX
	0x0042 00066 (/home/ruben/Workspace/go/inventory_benchmark/inventory.go:46)	DECQ	BX
	0x0045 00069 (/home/ruben/Workspace/go/inventory_benchmark/inventory.go:47)	ADDQ	R8, AX
	0x0048 00072 (/home/ruben/Workspace/go/inventory_benchmark/inventory.go:46)	TESTQ	BX, BX
	0x004b 00075 (/home/ruben/Workspace/go/inventory_benchmark/inventory.go:46)	JGT	40
	0x004d 00077 (/home/ruben/Workspace/go/inventory_benchmark/inventory.go:49)	ADDQ	$22576, SP
	0x0054 00084 (/home/ruben/Workspace/go/inventory_benchmark/inventory.go:49)	POPQ	BP
	0x0055 00085 (/home/ruben/Workspace/go/inventory_benchmark/inventory.go:49)	RET
	0x0056 00086 (/home/ruben/Workspace/go/inventory_benchmark/inventory.go:49)	NOP
	0x0056 00086 (/home/ruben/Workspace/go/inventory_benchmark/inventory.go:44)	PCDATA	$1, $-1
	0x0056 00086 (/home/ruben/Workspace/go/inventory_benchmark/inventory.go:44)	PCDATA	$0, $-2
	0x0056 00086 (/home/ruben/Workspace/go/inventory_benchmark/inventory.go:44)	MOVQ	AX, 8(SP)
	0x005b 00091 (/home/ruben/Workspace/go/inventory_benchmark/inventory.go:44)	NOP
	0x0060 00096 (/home/ruben/Workspace/go/inventory_benchmark/inventory.go:44)	CALL	runtime.morestack_noctxt(SB)
	0x0065 00101 (/home/ruben/Workspace/go/inventory_benchmark/inventory.go:44)	PCDATA	$0, $-1
	0x0065 00101 (/home/ruben/Workspace/go/inventory_benchmark/inventory.go:44)	MOVQ	8(SP), AX
	0x006a 00106 (/home/ruben/Workspace/go/inventory_benchmark/inventory.go:44)	JMP	0
	0x0000 49 89 e4 49 81 ec b8 57 00 00 72 4a 4d 3b 66 10  I..I...W..rJM;f.
	0x0010 76 44 55 48 89 e5 48 81 ec 30 58 00 00 48 8b 10  vDUH..H..0X..H..
	0x0020 48 8b 58 08 31 c0 eb 20 48 8d 3c 24 48 89 d6 b9  H.X.1.. H.<$H...
	0x0030 06 0b 00 00 f3 48 a5 4c 8b 04 24 48 81 c2 30 58  .....H.L..$H..0X
	0x0040 00 00 48 ff cb 4c 01 c0 48 85 db 7f db 48 81 c4  ..H..L..H....H..
	0x0050 30 58 00 00 5d c3 48 89 44 24 08 0f 1f 44 00 00  0X..].H.D$...D..
	0x0060 e8 00 00 00 00 48 8b 44 24 08 eb 94              .....H.D$...
	rel 97+4 t=R_CALL runtime.morestack_noctxt+0
<unlinkable>.(*OOPInventory).TotalWeightOfIndividualItems_RangeLoopIndex STEXT nosplit size=41 args=0x8 locals=0x0 funcid=0x0 align=0x0
	0x0000 00000 (/home/ruben/Workspace/go/inventory_benchmark/inventory.go:52)	TEXT	<unlinkable>.(*OOPInventory).TotalWeightOfIndividualItems_RangeLoopIndex(SB), NOSPLIT|NOFRAME|ABIInternal, $0-8
	0x0000 00000 (/home/ruben/Workspace/go/inventory_benchmark/inventory.go:52)	FUNCDATA	$0, gclocals·wgcWObbY2HYnK2SU/U22lA==(SB)
	0x0000 00000 (/home/ruben/Workspace/go/inventory_benchmark/inventory.go:52)	FUNCDATA	$1, gclocals·J5F+7Qw7O7ve2QcWC7DpeQ==(SB)
	0x0000 00000 (/home/ruben/Workspace/go/inventory_benchmark/inventory.go:52)	FUNCDATA	$5, <unlinkable>.(*OOPInventory).TotalWeightOfIndividualItems_RangeLoopIndex.arginfo1(SB)
	0x0000 00000 (/home/ruben/Workspace/go/inventory_benchmark/inventory.go:52)	FUNCDATA	$6, <unlinkable>.(*OOPInventory).TotalWeightOfIndividualItems_RangeLoopIndex.argliveinfo(SB)
	0x0000 00000 (/home/ruben/Workspace/go/inventory_benchmark/inventory.go:52)	PCDATA	$3, $1
	0x0000 00000 (/home/ruben/Workspace/go/inventory_benchmark/inventory.go:54)	MOVQ	(AX), CX
	0x0003 00003 (/home/ruben/Workspace/go/inventory_benchmark/inventory.go:54)	MOVQ	8(AX), DX
	0x0007 00007 (/home/ruben/Workspace/go/inventory_benchmark/inventory.go:54)	XORL	AX, AX
	0x0009 00009 (/home/ruben/Workspace/go/inventory_benchmark/inventory.go:54)	XORL	BX, BX
	0x000b 00011 (/home/ruben/Workspace/go/inventory_benchmark/inventory.go:54)	JMP	32
	0x000d 00013 (/home/ruben/Workspace/go/inventory_benchmark/inventory.go:55)	IMUL3Q	$22576, AX, SI
	0x0014 00020 (/home/ruben/Workspace/go/inventory_benchmark/inventory.go:55)	MOVQ	(CX)(SI*1), SI
	0x0018 00024 (/home/ruben/Workspace/go/inventory_benchmark/inventory.go:54)	INCQ	AX
	0x001b 00027 (/home/ruben/Workspace/go/inventory_benchmark/inventory.go:55)	ADDQ	SI, BX
	0x001e 00030 (/home/ruben/Workspace/go/inventory_benchmark/inventory.go:55)	NOP
	0x0020 00032 (/home/ruben/Workspace/go/inventory_benchmark/inventory.go:54)	CMPQ	AX, DX
	0x0023 00035 (/home/ruben/Workspace/go/inventory_benchmark/inventory.go:54)	JLT	13
	0x0025 00037 (/home/ruben/Workspace/go/inventory_benchmark/inventory.go:57)	MOVQ	BX, AX
	0x0028 00040 (/home/ruben/Workspace/go/inventory_benchmark/inventory.go:57)	RET
	0x0000 48 8b 08 48 8b 50 08 31 c0 31 db eb 13 48 69 f0  H..H.P.1.1...Hi.
	0x0010 30 58 00 00 48 8b 34 31 48 ff c0 48 01 f3 66 90  0X..H.41H..H..f.
	0x0020 48 39 d0 7c e8 48 89 d8 c3                       H9.|.H...
<unlinkable>.(*OOPInventory).TotalWeightOfIndividualItems STEXT nosplit size=42 args=0x8 locals=0x0 funcid=0x0 align=0x0
	0x0000 00000 (/home/ruben/Workspace/go/inventory_benchmark/inventory.go:60)	TEXT	<unlinkable>.(*OOPInventory).TotalWeightOfIndividualItems(SB), NOSPLIT|NOFRAME|ABIInternal, $0-8
	0x0000 00000 (/home/ruben/Workspace/go/inventory_benchmark/inventory.go:60)	FUNCDATA	$0, gclocals·wgcWObbY2HYnK2SU/U22lA==(SB)
	0x0000 00000 (/home/ruben/Workspace/go/inventory_benchmark/inventory.go:60)	FUNCDATA	$1, gclocals·J5F+7Qw7O7ve2QcWC7DpeQ==(SB)
	0x0000 00000 (/home/ruben/Workspace/go/inventory_benchmark/inventory.go:60)	FUNCDATA	$5, <unlinkable>.(*OOPInventory).TotalWeightOfIndividualItems.arginfo1(SB)
	0x0000 00000 (/home/ruben/Workspace/go/inventory_benchmark/inventory.go:60)	FUNCDATA	$6, <unlinkable>.(*OOPInventory).TotalWeightOfIndividualItems.argliveinfo(SB)
	0x0000 00000 (/home/ruben/Workspace/go/inventory_benchmark/inventory.go:60)	PCDATA	$3, $1
	0x0000 00000 (/home/ruben/Workspace/go/inventory_benchmark/inventory.go:62)	XORL	CX, CX
	0x0002 00002 (/home/ruben/Workspace/go/inventory_benchmark/inventory.go:62)	XORL	DX, DX
	0x0004 00004 (/home/ruben/Workspace/go/inventory_benchmark/inventory.go:62)	JMP	32
	0x0006 00006 (/home/ruben/Workspace/go/inventory_benchmark/inventory.go:62)	MOVQ	(AX), BX
	0x0009 00009 (/home/ruben/Workspace/go/inventory_benchmark/inventory.go:63)	IMUL3Q	$22576, CX, SI
	0x0010 00016 (/home/ruben/Workspace/go/inventory_benchmark/inventory.go:63)	MOVQ	(BX)(SI*1), BX
	0x0014 00020 (/home/ruben/Workspace/go/inventory_benchmark/inventory.go:62)	INCQ	CX
	0x0017 00023 (/home/ruben/Workspace/go/inventory_benchmark/inventory.go:63)	ADDQ	BX, DX
	0x001a 00026 (/home/ruben/Workspace/go/inventory_benchmark/inventory.go:63)	NOP
	0x0020 00032 (/home/ruben/Workspace/go/inventory_benchmark/inventory.go:62)	CMPQ	8(AX), CX
	0x0024 00036 (/home/ruben/Workspace/go/inventory_benchmark/inventory.go:62)	JGT	6
	0x0026 00038 (/home/ruben/Workspace/go/inventory_benchmark/inventory.go:65)	MOVQ	DX, AX
	0x0029 00041 (/home/ruben/Workspace/go/inventory_benchmark/inventory.go:65)	RET
	0x0000 31 c9 31 d2 eb 1a 48 8b 18 48 69 f1 30 58 00 00  1.1...H..Hi.0X..
	0x0010 48 8b 1c 33 48 ff c1 48 01 da 66 0f 1f 44 00 00  H..3H..H..f..D..
	0x0020 48 39 48 08 7f e0 48 89 d0 c3                    H9H...H...
<unlinkable>.(*OOPInventory).TotalWeightOfInventory STEXT nosplit size=45 args=0x8 locals=0x0 funcid=0x0 align=0x0
	0x0000 00000 (/home/ruben/Workspace/go/inventory_benchmark/inventory.go:68)	TEXT	<unlinkable>.(*OOPInventory).TotalWeightOfInventory(SB), NOSPLIT|NOFRAME|ABIInternal, $0-8
	0x0000 00000 (/home/ruben/Workspace/go/inventory_benchmark/inventory.go:68)	FUNCDATA	$0, gclocals·wgcWObbY2HYnK2SU/U22lA==(SB)
	0x0000 00000 (/home/ruben/Workspace/go/inventory_benchmark/inventory.go:68)	FUNCDATA	$1, gclocals·J5F+7Qw7O7ve2QcWC7DpeQ==(SB)
	0x0000 00000 (/home/ruben/Workspace/go/inventory_benchmark/inventory.go:68)	FUNCDATA	$5, <unlinkable>.(*OOPInventory).TotalWeightOfInventory.arginfo1(SB)
	0x0000 00000 (/home/ruben/Workspace/go/inventory_benchmark/inventory.go:68)	FUNCDATA	$6, <unlinkable>.(*OOPInventory).TotalWeightOfInventory.argliveinfo(SB)
	0x0000 00000 (/home/ruben/Workspace/go/inventory_benchmark/inventory.go:68)	PCDATA	$3, $1
	0x0000 00000 (/home/ruben/Workspace/go/inventory_benchmark/inventory.go:70)	XORL	CX, CX
	0x0002 00002 (/home/ruben/Workspace/go/inventory_benchmark/inventory.go:70)	XORL	DX, DX
	0x0004 00004 (/home/ruben/Workspace/go/inventory_benchmark/inventory.go:70)	JMP	35
	0x0006 00006 (/home/ruben/Workspace/go/inventory_benchmark/inventory.go:70)	MOVQ	(AX), BX
	0x0009 00009 (/home/ruben/Workspace/go/inventory_benchmark/inventory.go:71)	IMUL3Q	$22576, CX, SI
	0x0010 00016 (/home/ruben/Workspace/go/inventory_benchmark/inventory.go:71)	MOVQ	(BX)(SI*1), DI
	0x0014 00020 (/home/ruben/Workspace/go/inventory_benchmark/inventory.go:71)	MOVQ	8(BX)(SI*1), BX
	0x0019 00025 (/home/ruben/Workspace/go/inventory_benchmark/inventory.go:71)	IMULQ	BX, DI
	0x001d 00029 (/home/ruben/Workspace/go/inventory_benchmark/inventory.go:70)	INCQ	CX
	0x0020 00032 (/home/ruben/Workspace/go/inventory_benchmark/inventory.go:71)	ADDQ	DI, DX
	0x0023 00035 (/home/ruben/Workspace/go/inventory_benchmark/inventory.go:70)	CMPQ	8(AX), CX
	0x0027 00039 (/home/ruben/Workspace/go/inventory_benchmark/inventory.go:70)	JGT	6
	0x0029 00041 (/home/ruben/Workspace/go/inventory_benchmark/inventory.go:73)	MOVQ	DX, AX
	0x002c 00044 (/home/ruben/Workspace/go/inventory_benchmark/inventory.go:73)	RET
	0x0000 31 c9 31 d2 eb 1d 48 8b 18 48 69 f1 30 58 00 00  1.1...H..Hi.0X..
	0x0010 48 8b 3c 33 48 8b 5c 33 08 48 0f af fb 48 ff c1  H.<3H.\3.H...H..
	0x0020 48 01 fa 48 39 48 08 7f dd 48 89 d0 c3           H..H9H...H...
<unlinkable>.(*OOPInventory).TotalWeightOfInventory_ExtraCall STEXT nosplit size=45 args=0x8 locals=0x0 funcid=0x0 align=0x0
	0x0000 00000 (/home/ruben/Workspace/go/inventory_benchmark/inventory.go:76)	TEXT	<unlinkable>.(*OOPInventory).TotalWeightOfInventory_ExtraCall(SB), NOSPLIT|NOFRAME|ABIInternal, $0-8
	0x0000 00000 (/home/ruben/Workspace/go/inventory_benchmark/inventory.go:76)	FUNCDATA	$0, gclocals·wgcWObbY2HYnK2SU/U22lA==(SB)
	0x0000 00000 (/home/ruben/Workspace/go/inventory_benchmark/inventory.go:76)	FUNCDATA	$1, gclocals·J5F+7Qw7O7ve2QcWC7DpeQ==(SB)
	0x0000 00000 (/home/ruben/Workspace/go/inventory_benchmark/inventory.go:76)	FUNCDATA	$5, <unlinkable>.(*OOPInventory).TotalWeightOfInventory_ExtraCall.arginfo1(SB)
	0x0000 00000 (/home/ruben/Workspace/go/inventory_benchmark/inventory.go:76)	FUNCDATA	$6, <unlinkable>.(*OOPInventory).TotalWeightOfInventory_ExtraCall.argliveinfo(SB)
	0x0000 00000 (/home/ruben/Workspace/go/inventory_benchmark/inventory.go:76)	PCDATA	$3, $1
	0x0000 00000 (/home/ruben/Workspace/go/inventory_benchmark/inventory.go:78)	XORL	CX, CX
	0x0002 00002 (/home/ruben/Workspace/go/inventory_benchmark/inventory.go:78)	XORL	DX, DX
	0x0004 00004 (/home/ruben/Workspace/go/inventory_benchmark/inventory.go:78)	JMP	35
	0x0006 00006 (/home/ruben/Workspace/go/inventory_benchmark/inventory.go:78)	MOVQ	(AX), BX
	0x0009 00009 (/home/ruben/Workspace/go/inventory_benchmark/inventory.go:80)	IMUL3Q	$22576, CX, SI
	0x0010 00016 (/home/ruben/Workspace/go/inventory_benchmark/inventory.go:41)	MOVQ	(BX)(SI*1), DI
	0x0014 00020 (/home/ruben/Workspace/go/inventory_benchmark/inventory.go:41)	MOVQ	8(BX)(SI*1), BX
	0x0019 00025 (/home/ruben/Workspace/go/inventory_benchmark/inventory.go:41)	IMULQ	BX, DI
	0x001d 00029 (/home/ruben/Workspace/go/inventory_benchmark/inventory.go:78)	INCQ	CX
	0x0020 00032 (/home/ruben/Workspace/go/inventory_benchmark/inventory.go:80)	ADDQ	DI, DX
	0x0023 00035 (<unknown line number>)	NOP
	0x0023 00035 (/home/ruben/Workspace/go/inventory_benchmark/inventory.go:78)	CMPQ	8(AX), CX
	0x0027 00039 (/home/ruben/Workspace/go/inventory_benchmark/inventory.go:78)	JGT	6
	0x0029 00041 (/home/ruben/Workspace/go/inventory_benchmark/inventory.go:82)	MOVQ	DX, AX
	0x002c 00044 (/home/ruben/Workspace/go/inventory_benchmark/inventory.go:82)	RET
	0x0000 31 c9 31 d2 eb 1d 48 8b 18 48 69 f1 30 58 00 00  1.1...H..Hi.0X..
	0x0010 48 8b 3c 33 48 8b 5c 33 08 48 0f af fb 48 ff c1  H.<3H.\3.H...H..
	0x0020 48 01 fa 48 39 48 08 7f dd 48 89 d0 c3           H..H9H...H...
<unlinkable>.AOS_TotalWeightOfIndividualItems_RangeLoopValue STEXT size=143 args=0x8 locals=0x58308 funcid=0x0 align=0x0
	0x0000 00000 (/home/ruben/Workspace/go/inventory_benchmark/inventory.go:103)	TEXT	<unlinkable>.AOS_TotalWeightOfIndividualItems_RangeLoopValue(SB), ABIInternal, $361224-8
	0x0000 00000 (/home/ruben/Workspace/go/inventory_benchmark/inventory.go:103)	MOVQ	SP, R12
	0x0003 00003 (/home/ruben/Workspace/go/inventory_benchmark/inventory.go:103)	PCDATA	$0, $-2
	0x0003 00003 (/home/ruben/Workspace/go/inventory_benchmark/inventory.go:103)	SUBQ	$361096, R12
	0x000a 00010 (/home/ruben/Workspace/go/inventory_benchmark/inventory.go:103)	JCS	120
	0x000c 00012 (/home/ruben/Workspace/go/inventory_benchmark/inventory.go:103)	CMPQ	R12, 16(R14)
	0x0010 00016 (/home/ruben/Workspace/go/inventory_benchmark/inventory.go:103)	JLS	120
	0x0012 00018 (/home/ruben/Workspace/go/inventory_benchmark/inventory.go:103)	PCDATA	$0, $-1
	0x0012 00018 (/home/ruben/Workspace/go/inventory_benchmark/inventory.go:103)	PUSHQ	BP
	0x0013 00019 (/home/ruben/Workspace/go/inventory_benchmark/inventory.go:103)	MOVQ	SP, BP
	0x0016 00022 (/home/ruben/Workspace/go/inventory_benchmark/inventory.go:103)	SUBQ	$361216, SP
	0x001d 00029 (/home/ruben/Workspace/go/inventory_benchmark/inventory.go:103)	FUNCDATA	$0, gclocals·wgcWObbY2HYnK2SU/U22lA==(SB)
	0x001d 00029 (/home/ruben/Workspace/go/inventory_benchmark/inventory.go:103)	FUNCDATA	$1, gclocals·0UxQrd3uNHf3dlUxnX2a+w==(SB)
	0x001d 00029 (/home/ruben/Workspace/go/inventory_benchmark/inventory.go:103)	FUNCDATA	$2, <unlinkable>.AOS_TotalWeightOfIndividualItems_RangeLoopValue.stkobj(SB)
	0x001d 00029 (/home/ruben/Workspace/go/inventory_benchmark/inventory.go:103)	FUNCDATA	$5, <unlinkable>.AOS_TotalWeightOfIndividualItems_RangeLoopValue.arginfo1(SB)
	0x001d 00029 (/home/ruben/Workspace/go/inventory_benchmark/inventory.go:103)	FUNCDATA	$6, <unlinkable>.AOS_TotalWeightOfIndividualItems_RangeLoopValue.argliveinfo(SB)
	0x001d 00029 (/home/ruben/Workspace/go/inventory_benchmark/inventory.go:103)	PCDATA	$3, $1
	0x001d 00029 (/home/ruben/Workspace/go/inventory_benchmark/inventory.go:105)	TESTB	AL, (AX)
	0x001f 00031 (/home/ruben/Workspace/go/inventory_benchmark/inventory.go:105)	LEAQ	<unlinkable>..autotmp_4+22576(SP), DI
	0x0027 00039 (/home/ruben/Workspace/go/inventory_benchmark/inventory.go:105)	MOVQ	AX, SI
	0x002a 00042 (/home/ruben/Workspace/go/inventory_benchmark/inventory.go:105)	MOVL	$42330, CX
	0x002f 00047 (/home/ruben/Workspace/go/inventory_benchmark/inventory.go:105)	REP
	0x0030 00048 (/home/ruben/Workspace/go/inventory_benchmark/inventory.go:105)	MOVSQ
	0x0032 00050 (/home/ruben/Workspace/go/inventory_benchmark/inventory.go:105)	LEAQ	<unlinkable>..autotmp_4+22576(SP), DX
	0x003a 00058 (/home/ruben/Workspace/go/inventory_benchmark/inventory.go:105)	XORL	AX, AX
	0x003c 00060 (/home/ruben/Workspace/go/inventory_benchmark/inventory.go:105)	XORL	CX, CX
	0x003e 00062 (/home/ruben/Workspace/go/inventory_benchmark/inventory.go:105)	NOP
	0x0040 00064 (/home/ruben/Workspace/go/inventory_benchmark/inventory.go:105)	JMP	102
	0x0042 00066 (/home/ruben/Workspace/go/inventory_benchmark/inventory.go:105)	LEAQ	<unlinkable>.s(SP), DI
	0x0046 00070 (/home/ruben/Workspace/go/inventory_benchmark/inventory.go:105)	MOVQ	DX, SI
	0x0049 00073 (/home/ruben/Workspace/go/inventory_benchmark/inventory.go:108)	MOVQ	CX, BX
	0x004c 00076 (/home/ruben/Workspace/go/inventory_benchmark/inventory.go:105)	MOVL	$2822, CX
	0x0051 00081 (/home/ruben/Workspace/go/inventory_benchmark/inventory.go:105)	REP
	0x0052 00082 (/home/ruben/Workspace/go/inventory_benchmark/inventory.go:105)	MOVSQ
	0x0054 00084 (/home/ruben/Workspace/go/inventory_benchmark/inventory.go:106)	MOVQ	<unlinkable>.s(SP), R8
	0x0058 00088 (/home/ruben/Workspace/go/inventory_benchmark/inventory.go:105)	ADDQ	$22576, DX
	0x005f 00095 (/home/ruben/Workspace/go/inventory_benchmark/inventory.go:105)	INCQ	AX
	0x0062 00098 (/home/ruben/Workspace/go/inventory_benchmark/inventory.go:106)	LEAQ	(R8)(BX*1), CX
	0x0066 00102 (/home/ruben/Workspace/go/inventory_benchmark/inventory.go:105)	CMPQ	AX, $15
	0x006a 00106 (/home/ruben/Workspace/go/inventory_benchmark/inventory.go:105)	JLT	66
	0x006c 00108 (/home/ruben/Workspace/go/inventory_benchmark/inventory.go:108)	MOVQ	CX, AX
	0x006f 00111 (/home/ruben/Workspace/go/inventory_benchmark/inventory.go:108)	ADDQ	$361216, SP
	0x0076 00118 (/home/ruben/Workspace/go/inventory_benchmark/inventory.go:108)	POPQ	BP
	0x0077 00119 (/home/ruben/Workspace/go/inventory_benchmark/inventory.go:108)	RET
	0x0078 00120 (/home/ruben/Workspace/go/inventory_benchmark/inventory.go:108)	NOP
	0x0078 00120 (/home/ruben/Workspace/go/inventory_benchmark/inventory.go:103)	PCDATA	$1, $-1
	0x0078 00120 (/home/ruben/Workspace/go/inventory_benchmark/inventory.go:103)	PCDATA	$0, $-2
	0x0078 00120 (/home/ruben/Workspace/go/inventory_benchmark/inventory.go:103)	MOVQ	AX, 8(SP)
	0x007d 00125 (/home/ruben/Workspace/go/inventory_benchmark/inventory.go:103)	NOP
	0x0080 00128 (/home/ruben/Workspace/go/inventory_benchmark/inventory.go:103)	CALL	runtime.morestack_noctxt(SB)
	0x0085 00133 (/home/ruben/Workspace/go/inventory_benchmark/inventory.go:103)	PCDATA	$0, $-1
	0x0085 00133 (/home/ruben/Workspace/go/inventory_benchmark/inventory.go:103)	MOVQ	8(SP), AX
	0x008a 00138 (/home/ruben/Workspace/go/inventory_benchmark/inventory.go:103)	JMP	0
	0x0000 49 89 e4 49 81 ec 88 82 05 00 72 6c 4d 3b 66 10  I..I......rlM;f.
	0x0010 76 66 55 48 89 e5 48 81 ec 00 83 05 00 84 00 48  vfUH..H........H
	0x0020 8d bc 24 30 58 00 00 48 89 c6 b9 5a a5 00 00 f3  ..$0X..H...Z....
	0x0030 48 a5 48 8d 94 24 30 58 00 00 31 c0 31 c9 66 90  H.H..$0X..1.1.f.
	0x0040 eb 24 48 8d 3c 24 48 89 d6 48 89 cb b9 06 0b 00  .$H.<$H..H......
	0x0050 00 f3 48 a5 4c 8b 04 24 48 81 c2 30 58 00 00 48  ..H.L..$H..0X..H
	0x0060 ff c0 49 8d 0c 18 48 83 f8 0f 7c d6 48 89 c8 48  ..I...H...|.H..H
	0x0070 81 c4 00 83 05 00 5d c3 48 89 44 24 08 0f 1f 00  ......].H.D$....
	0x0080 e8 00 00 00 00 48 8b 44 24 08 e9 71 ff ff ff     .....H.D$..q...
	rel 129+4 t=R_CALL runtime.morestack_noctxt+0
<unlinkable>.AOS_TotalWeightOfIndividualItems_RangeLoopIndex STEXT nosplit size=35 args=0x8 locals=0x0 funcid=0x0 align=0x0
	0x0000 00000 (/home/ruben/Workspace/go/inventory_benchmark/inventory.go:111)	TEXT	<unlinkable>.AOS_TotalWeightOfIndividualItems_RangeLoopIndex(SB), NOSPLIT|NOFRAME|ABIInternal, $0-8
	0x0000 00000 (/home/ruben/Workspace/go/inventory_benchmark/inventory.go:111)	FUNCDATA	$0, gclocals·wgcWObbY2HYnK2SU/U22lA==(SB)
	0x0000 00000 (/home/ruben/Workspace/go/inventory_benchmark/inventory.go:111)	FUNCDATA	$1, gclocals·J5F+7Qw7O7ve2QcWC7DpeQ==(SB)
	0x0000 00000 (/home/ruben/Workspace/go/inventory_benchmark/inventory.go:111)	FUNCDATA	$5, <unlinkable>.AOS_TotalWeightOfIndividualItems_RangeLoopIndex.arginfo1(SB)
	0x0000 00000 (/home/ruben/Workspace/go/inventory_benchmark/inventory.go:111)	FUNCDATA	$6, <unlinkable>.AOS_TotalWeightOfIndividualItems_RangeLoopIndex.argliveinfo(SB)
	0x0000 00000 (/home/ruben/Workspace/go/inventory_benchmark/inventory.go:111)	PCDATA	$3, $1
	0x0000 00000 (/home/ruben/Workspace/go/inventory_benchmark/inventory.go:113)	XORL	CX, CX
	0x0002 00002 (/home/ruben/Workspace/go/inventory_benchmark/inventory.go:113)	XORL	DX, DX
	0x0004 00004 (/home/ruben/Workspace/go/inventory_benchmark/inventory.go:113)	JMP	25
	0x0006 00006 (/home/ruben/Workspace/go/inventory_benchmark/inventory.go:114)	TESTB	AL, (AX)
	0x0008 00008 (/home/ruben/Workspace/go/inventory_benchmark/inventory.go:114)	IMUL3Q	$22576, CX, BX
	0x000f 00015 (/home/ruben/Workspace/go/inventory_benchmark/inventory.go:114)	MOVQ	(AX)(BX*1), BX
	0x0013 00019 (/home/ruben/Workspace/go/inventory_benchmark/inventory.go:113)	INCQ	CX
	0x0016 00022 (/home/ruben/Workspace/go/inventory_benchmark/inventory.go:114)	ADDQ	BX, DX
	0x0019 00025 (/home/ruben/Workspace/go/inventory_benchmark/inventory.go:113)	CMPQ	CX, $15
	0x001d 00029 (/home/ruben/Workspace/go/inventory_benchmark/inventory.go:113)	JLT	6
	0x001f 00031 (/home/ruben/Workspace/go/inventory_benchmark/inventory.go:116)	MOVQ	DX, AX
	0x0022 00034 (/home/ruben/Workspace/go/inventory_benchmark/inventory.go:116)	RET
	0x0000 31 c9 31 d2 eb 13 84 00 48 69 d9 30 58 00 00 48  1.1.....Hi.0X..H
	0x0010 8b 1c 18 48 ff c1 48 01 da 48 83 f9 0f 7c e7 48  ...H..H..H...|.H
	0x0020 89 d0 c3                                         ...
<unlinkable>.AOS_TotalWeightOfIndividualItems STEXT nosplit size=35 args=0x8 locals=0x0 funcid=0x0 align=0x0
	0x0000 00000 (/home/ruben/Workspace/go/inventory_benchmark/inventory.go:119)	TEXT	<unlinkable>.AOS_TotalWeightOfIndividualItems(SB), NOSPLIT|NOFRAME|ABIInternal, $0-8
	0x0000 00000 (/home/ruben/Workspace/go/inventory_benchmark/inventory.go:119)	FUNCDATA	$0, gclocals·wgcWObbY2HYnK2SU/U22lA==(SB)
	0x0000 00000 (/home/ruben/Workspace/go/inventory_benchmark/inventory.go:119)	FUNCDATA	$1, gclocals·J5F+7Qw7O7ve2QcWC7DpeQ==(SB)
	0x0000 00000 (/home/ruben/Workspace/go/inventory_benchmark/inventory.go:119)	FUNCDATA	$5, <unlinkable>.AOS_TotalWeightOfIndividualItems.arginfo1(SB)
	0x0000 00000 (/home/ruben/Workspace/go/inventory_benchmark/inventory.go:119)	FUNCDATA	$6, <unlinkable>.AOS_TotalWeightOfIndividualItems.argliveinfo(SB)
	0x0000 00000 (/home/ruben/Workspace/go/inventory_benchmark/inventory.go:119)	PCDATA	$3, $1
	0x0000 00000 (/home/ruben/Workspace/go/inventory_benchmark/inventory.go:121)	XORL	CX, CX
	0x0002 00002 (/home/ruben/Workspace/go/inventory_benchmark/inventory.go:121)	XORL	DX, DX
	0x0004 00004 (/home/ruben/Workspace/go/inventory_benchmark/inventory.go:121)	JMP	25
	0x0006 00006 (/home/ruben/Workspace/go/inventory_benchmark/inventory.go:122)	TESTB	AL, (AX)
	0x0008 00008 (/home/ruben/Workspace/go/inventory_benchmark/inventory.go:122)	IMUL3Q	$22576, CX, BX
	0x000f 00015 (/home/ruben/Workspace/go/inventory_benchmark/inventory.go:122)	MOVQ	(AX)(BX*1), BX
	0x0013 00019 (/home/ruben/Workspace/go/inventory_benchmark/inventory.go:121)	INCQ	CX
	0x0016 00022 (/home/ruben/Workspace/go/inventory_benchmark/inventory.go:122)	ADDQ	BX, DX
	0x0019 00025 (/home/ruben/Workspace/go/inventory_benchmark/inventory.go:121)	CMPQ	CX, $15
	0x001d 00029 (/home/ruben/Workspace/go/inventory_benchmark/inventory.go:121)	JLT	6
	0x001f 00031 (/home/ruben/Workspace/go/inventory_benchmark/inventory.go:124)	MOVQ	DX, AX
	0x0022 00034 (/home/ruben/Workspace/go/inventory_benchmark/inventory.go:124)	RET
	0x0000 31 c9 31 d2 eb 13 84 00 48 69 d9 30 58 00 00 48  1.1.....Hi.0X..H
	0x0010 8b 1c 18 48 ff c1 48 01 da 48 83 f9 0f 7c e7 48  ...H..H..H...|.H
	0x0020 89 d0 c3                                         ...
<unlinkable>.AOS_TotalWeightOfInventory STEXT nosplit size=44 args=0x8 locals=0x0 funcid=0x0 align=0x0
	0x0000 00000 (/home/ruben/Workspace/go/inventory_benchmark/inventory.go:127)	TEXT	<unlinkable>.AOS_TotalWeightOfInventory(SB), NOSPLIT|NOFRAME|ABIInternal, $0-8
	0x0000 00000 (/home/ruben/Workspace/go/inventory_benchmark/inventory.go:127)	FUNCDATA	$0, gclocals·wgcWObbY2HYnK2SU/U22lA==(SB)
	0x0000 00000 (/home/ruben/Workspace/go/inventory_benchmark/inventory.go:127)	FUNCDATA	$1, gclocals·J5F+7Qw7O7ve2QcWC7DpeQ==(SB)
	0x0000 00000 (/home/ruben/Workspace/go/inventory_benchmark/inventory.go:127)	FUNCDATA	$5, <unlinkable>.AOS_TotalWeightOfInventory.arginfo1(SB)
	0x0000 00000 (/home/ruben/Workspace/go/inventory_benchmark/inventory.go:127)	FUNCDATA	$6, <unlinkable>.AOS_TotalWeightOfInventory.argliveinfo(SB)
	0x0000 00000 (/home/ruben/Workspace/go/inventory_benchmark/inventory.go:127)	PCDATA	$3, $1
	0x0000 00000 (/home/ruben/Workspace/go/inventory_benchmark/inventory.go:129)	XORL	CX, CX
	0x0002 00002 (/home/ruben/Workspace/go/inventory_benchmark/inventory.go:129)	XORL	DX, DX
	0x0004 00004 (/home/ruben/Workspace/go/inventory_benchmark/inventory.go:129)	JMP	34
	0x0006 00006 (/home/ruben/Workspace/go/inventory_benchmark/inventory.go:130)	TESTB	AL, (AX)
	0x0008 00008 (/home/ruben/Workspace/go/inventory_benchmark/inventory.go:130)	IMUL3Q	$22576, CX, BX
	0x000f 00015 (/home/ruben/Workspace/go/inventory_benchmark/inventory.go:130)	MOVQ	(AX)(BX*1), SI
	0x0013 00019 (/home/ruben/Workspace/go/inventory_benchmark/inventory.go:130)	MOVQ	8(AX)(BX*1), BX
	0x0018 00024 (/home/ruben/Workspace/go/inventory_benchmark/inventory.go:130)	IMULQ	BX, SI
	0x001c 00028 (/home/ruben/Workspace/go/inventory_benchmark/inventory.go:129)	INCQ	CX
	0x001f 00031 (/home/ruben/Workspace/go/inventory_benchmark/inventory.go:130)	ADDQ	SI, DX
	0x0022 00034 (/home/ruben/Workspace/go/inventory_benchmark/inventory.go:129)	CMPQ	CX, $15
	0x0026 00038 (/home/ruben/Workspace/go/inventory_benchmark/inventory.go:129)	JLT	6
	0x0028 00040 (/home/ruben/Workspace/go/inventory_benchmark/inventory.go:132)	MOVQ	DX, AX
	0x002b 00043 (/home/ruben/Workspace/go/inventory_benchmark/inventory.go:132)	RET
	0x0000 31 c9 31 d2 eb 1c 84 00 48 69 d9 30 58 00 00 48  1.1.....Hi.0X..H
	0x0010 8b 34 18 48 8b 5c 18 08 48 0f af f3 48 ff c1 48  .4.H.\..H...H..H
	0x0020 01 f2 48 83 f9 0f 7c de 48 89 d0 c3              ..H...|.H...
<unlinkable>.SWA_TotalWeightOfIndividualItems STEXT nosplit size=28 args=0x8 locals=0x0 funcid=0x0 align=0x0
	0x0000 00000 (/home/ruben/Workspace/go/inventory_benchmark/inventory.go:149)	TEXT	<unlinkable>.SWA_TotalWeightOfIndividualItems(SB), NOSPLIT|NOFRAME|ABIInternal, $0-8
	0x0000 00000 (/home/ruben/Workspace/go/inventory_benchmark/inventory.go:149)	FUNCDATA	$0, gclocals·wgcWObbY2HYnK2SU/U22lA==(SB)
	0x0000 00000 (/home/ruben/Workspace/go/inventory_benchmark/inventory.go:149)	FUNCDATA	$1, gclocals·J5F+7Qw7O7ve2QcWC7DpeQ==(SB)
	0x0000 00000 (/home/ruben/Workspace/go/inventory_benchmark/inventory.go:149)	FUNCDATA	$5, <unlinkable>.SWA_TotalWeightOfIndividualItems.arginfo1(SB)
	0x0000 00000 (/home/ruben/Workspace/go/inventory_benchmark/inventory.go:149)	FUNCDATA	$6, <unlinkable>.SWA_TotalWeightOfIndividualItems.argliveinfo(SB)
	0x0000 00000 (/home/ruben/Workspace/go/inventory_benchmark/inventory.go:149)	PCDATA	$3, $1
	0x0000 00000 (/home/ruben/Workspace/go/inventory_benchmark/inventory.go:152)	XORL	CX, CX
	0x0002 00002 (/home/ruben/Workspace/go/inventory_benchmark/inventory.go:152)	XORL	DX, DX
	0x0004 00004 (/home/ruben/Workspace/go/inventory_benchmark/inventory.go:152)	JMP	18
	0x0006 00006 (/home/ruben/Workspace/go/inventory_benchmark/inventory.go:153)	TESTB	AL, (AX)
	0x0008 00008 (/home/ruben/Workspace/go/inventory_benchmark/inventory.go:153)	MOVQ	(AX)(CX*8), BX
	0x000c 00012 (/home/ruben/Workspace/go/inventory_benchmark/inventory.go:152)	INCQ	CX
	0x000f 00015 (/home/ruben/Workspace/go/inventory_benchmark/inventory.go:153)	ADDQ	BX, DX
	0x0012 00018 (/home/ruben/Workspace/go/inventory_benchmark/inventory.go:152)	CMPQ	CX, $15
	0x0016 00022 (/home/ruben/Workspace/go/inventory_benchmark/inventory.go:152)	JLT	6
	0x0018 00024 (/home/ruben/Workspace/go/inventory_benchmark/inventory.go:156)	MOVQ	DX, AX
	0x001b 00027 (/home/ruben/Workspace/go/inventory_benchmark/inventory.go:156)	RET
	0x0000 31 c9 31 d2 eb 0c 84 00 48 8b 1c c8 48 ff c1 48  1.1.....H...H..H
	0x0010 01 da 48 83 f9 0f 7c ee 48 89 d0 c3              ..H...|.H...
<unlinkable>.SWA_TotalWeightOfIndividualItems_RangeLoopValue STEXT size=99 args=0x8 locals=0x80 funcid=0x0 align=0x0
	0x0000 00000 (/home/ruben/Workspace/go/inventory_benchmark/inventory.go:159)	TEXT	<unlinkable>.SWA_TotalWeightOfIndividualItems_RangeLoopValue(SB), ABIInternal, $128-8
	0x0000 00000 (/home/ruben/Workspace/go/inventory_benchmark/inventory.go:159)	CMPQ	SP, 16(R14)
	0x0004 00004 (/home/ruben/Workspace/go/inventory_benchmark/inventory.go:159)	PCDATA	$0, $-2
	0x0004 00004 (/home/ruben/Workspace/go/inventory_benchmark/inventory.go:159)	JLS	82
	0x0006 00006 (/home/ruben/Workspace/go/inventory_benchmark/inventory.go:159)	PCDATA	$0, $-1
	0x0006 00006 (/home/ruben/Workspace/go/inventory_benchmark/inventory.go:159)	PUSHQ	BP
	0x0007 00007 (/home/ruben/Workspace/go/inventory_benchmark/inventory.go:159)	MOVQ	SP, BP
	0x000a 00010 (/home/ruben/Workspace/go/inventory_benchmark/inventory.go:159)	SUBQ	$120, SP
	0x000e 00014 (/home/ruben/Workspace/go/inventory_benchmark/inventory.go:159)	FUNCDATA	$0, gclocals·wgcWObbY2HYnK2SU/U22lA==(SB)
	0x000e 00014 (/home/ruben/Workspace/go/inventory_benchmark/inventory.go:159)	FUNCDATA	$1, gclocals·J5F+7Qw7O7ve2QcWC7DpeQ==(SB)
	0x000e 00014 (/home/ruben/Workspace/go/inventory_benchmark/inventory.go:159)	FUNCDATA	$5, <unlinkable>.SWA_TotalWeightOfIndividualItems_RangeLoopValue.arginfo1(SB)
	0x000e 00014 (/home/ruben/Workspace/go/inventory_benchmark/inventory.go:159)	FUNCDATA	$6, <unlinkable>.SWA_TotalWeightOfIndividualItems_RangeLoopValue.argliveinfo(SB)
	0x000e 00014 (/home/ruben/Workspace/go/inventory_benchmark/inventory.go:159)	PCDATA	$3, $1
	0x000e 00014 (/home/ruben/Workspace/go/inventory_benchmark/inventory.go:162)	MOVQ	(AX), CX
	0x0011 00017 (/home/ruben/Workspace/go/inventory_benchmark/inventory.go:162)	MOVQ	CX, <unlinkable>..autotmp_4(SP)
	0x0015 00021 (/home/ruben/Workspace/go/inventory_benchmark/inventory.go:162)	LEAQ	8(AX), SI
	0x0019 00025 (/home/ruben/Workspace/go/inventory_benchmark/inventory.go:162)	LEAQ	<unlinkable>..autotmp_4+8(SP), DI
	0x001e 00030 (/home/ruben/Workspace/go/inventory_benchmark/inventory.go:162)	PCDATA	$0, $-2
	0x001e 00030 (/home/ruben/Workspace/go/inventory_benchmark/inventory.go:162)	NOP
	0x0020 00032 (/home/ruben/Workspace/go/inventory_benchmark/inventory.go:162)	DUFFCOPY	$798
	0x0033 00051 (/home/ruben/Workspace/go/inventory_benchmark/inventory.go:162)	PCDATA	$0, $-1
	0x0033 00051 (/home/ruben/Workspace/go/inventory_benchmark/inventory.go:162)	XORL	AX, AX
	0x0035 00053 (/home/ruben/Workspace/go/inventory_benchmark/inventory.go:162)	XORL	CX, CX
	0x0037 00055 (/home/ruben/Workspace/go/inventory_benchmark/inventory.go:162)	JMP	67
	0x0039 00057 (/home/ruben/Workspace/go/inventory_benchmark/inventory.go:162)	MOVQ	<unlinkable>..autotmp_4(SP)(AX*8), DX
	0x003d 00061 (/home/ruben/Workspace/go/inventory_benchmark/inventory.go:162)	INCQ	AX
	0x0040 00064 (/home/ruben/Workspace/go/inventory_benchmark/inventory.go:163)	ADDQ	DX, CX
	0x0043 00067 (/home/ruben/Workspace/go/inventory_benchmark/inventory.go:162)	CMPQ	AX, $15
	0x0047 00071 (/home/ruben/Workspace/go/inventory_benchmark/inventory.go:162)	JLT	57
	0x0049 00073 (/home/ruben/Workspace/go/inventory_benchmark/inventory.go:166)	MOVQ	CX, AX
	0x004c 00076 (/home/ruben/Workspace/go/inventory_benchmark/inventory.go:166)	ADDQ	$120, SP
	0x0050 00080 (/home/ruben/Workspace/go/inventory_benchmark/inventory.go:166)	POPQ	BP
	0x0051 00081 (/home/ruben/Workspace/go/inventory_benchmark/inventory.go:166)	RET
	0x0052 00082 (/home/ruben/Workspace/go/inventory_benchmark/inventory.go:166)	NOP
	0x0052 00082 (/home/ruben/Workspace/go/inventory_benchmark/inventory.go:159)	PCDATA	$1, $-1
	0x0052 00082 (/home/ruben/Workspace/go/inventory_benchmark/inventory.go:159)	PCDATA	$0, $-2
	0x0052 00082 (/home/ruben/Workspace/go/inventory_benchmark/inventory.go:159)	MOVQ	AX, 8(SP)
	0x0057 00087 (/home/ruben/Workspace/go/inventory_benchmark/inventory.go:159)	CALL	runtime.morestack_noctxt(SB)
	0x005c 00092 (/home/ruben/Workspace/go/inventory_benchmark/inventory.go:159)	PCDATA	$0, $-1
	0x005c 00092 (/home/ruben/Workspace/go/inventory_benchmark/inventory.go:159)	MOVQ	8(SP), AX
	0x0061 00097 (/home/ruben/Workspace/go/inventory_benchmark/inventory.go:159)	JMP	0
	0x0000 49 3b 66 10 76 4c 55 48 89 e5 48 83 ec 78 48 8b  I;f.vLUH..H..xH.
	0x0010 08 48 89 0c 24 48 8d 70 08 48 8d 7c 24 08 66 90  .H..$H.p.H.|$.f.
	0x0020 48 89 6c 24 f0 48 8d 6c 24 f0 e8 00 00 00 00 48  H.l$.H.l$......H
	0x0030 8b 6d 00 31 c0 31 c9 eb 0a 48 8b 14 c4 48 ff c0  .m.1.1...H...H..
	0x0040 48 01 d1 48 83 f8 0f 7c f0 48 89 c8 48 83 c4 78  H..H...|.H..H..x
	0x0050 5d c3 48 89 44 24 08 e8 00 00 00 00 48 8b 44 24  ].H.D$......H.D$
	0x0060 08 eb 9d                                         ...
	rel 43+4 t=R_CALL runtime.duffcopy+798
	rel 88+4 t=R_CALL runtime.morestack_noctxt+0
<unlinkable>.SWA_TotalWeightOfIndividualItems_RangeLoopIndex STEXT nosplit size=28 args=0x8 locals=0x0 funcid=0x0 align=0x0
	0x0000 00000 (/home/ruben/Workspace/go/inventory_benchmark/inventory.go:169)	TEXT	<unlinkable>.SWA_TotalWeightOfIndividualItems_RangeLoopIndex(SB), NOSPLIT|NOFRAME|ABIInternal, $0-8
	0x0000 00000 (/home/ruben/Workspace/go/inventory_benchmark/inventory.go:169)	FUNCDATA	$0, gclocals·wgcWObbY2HYnK2SU/U22lA==(SB)
	0x0000 00000 (/home/ruben/Workspace/go/inventory_benchmark/inventory.go:169)	FUNCDATA	$1, gclocals·J5F+7Qw7O7ve2QcWC7DpeQ==(SB)
	0x0000 00000 (/home/ruben/Workspace/go/inventory_benchmark/inventory.go:169)	FUNCDATA	$5, <unlinkable>.SWA_TotalWeightOfIndividualItems_RangeLoopIndex.arginfo1(SB)
	0x0000 00000 (/home/ruben/Workspace/go/inventory_benchmark/inventory.go:169)	FUNCDATA	$6, <unlinkable>.SWA_TotalWeightOfIndividualItems_RangeLoopIndex.argliveinfo(SB)
	0x0000 00000 (/home/ruben/Workspace/go/inventory_benchmark/inventory.go:169)	PCDATA	$3, $1
	0x0000 00000 (/home/ruben/Workspace/go/inventory_benchmark/inventory.go:172)	XORL	CX, CX
	0x0002 00002 (/home/ruben/Workspace/go/inventory_benchmark/inventory.go:172)	XORL	DX, DX
	0x0004 00004 (/home/ruben/Workspace/go/inventory_benchmark/inventory.go:172)	JMP	18
	0x0006 00006 (/home/ruben/Workspace/go/inventory_benchmark/inventory.go:173)	TESTB	AL, (AX)
	0x0008 00008 (/home/ruben/Workspace/go/inventory_benchmark/inventory.go:173)	MOVQ	(AX)(CX*8), BX
	0x000c 00012 (/home/ruben/Workspace/go/inventory_benchmark/inventory.go:172)	INCQ	CX
	0x000f 00015 (/home/ruben/Workspace/go/inventory_benchmark/inventory.go:173)	ADDQ	BX, DX
	0x0012 00018 (/home/ruben/Workspace/go/inventory_benchmark/inventory.go:172)	CMPQ	CX, $15
	0x0016 00022 (/home/ruben/Workspace/go/inventory_benchmark/inventory.go:172)	JLT	6
	0x0018 00024 (/home/ruben/Workspace/go/inventory_benchmark/inventory.go:176)	MOVQ	DX, AX
	0x001b 00027 (/home/ruben/Workspace/go/inventory_benchmark/inventory.go:176)	RET
	0x0000 31 c9 31 d2 eb 0c 84 00 48 8b 1c c8 48 ff c1 48  1.1.....H...H..H
	0x0010 01 da 48 83 f9 0f 7c ee 48 89 d0 c3              ..H...|.H...
<unlinkable>.SWA_TotalWeightOfInventory STEXT nosplit size=42 args=0x8 locals=0x0 funcid=0x0 align=0x0
	0x0000 00000 (/home/ruben/Workspace/go/inventory_benchmark/inventory.go:179)	TEXT	<unlinkable>.SWA_TotalWeightOfInventory(SB), NOSPLIT|NOFRAME|ABIInternal, $0-8
	0x0000 00000 (/home/ruben/Workspace/go/inventory_benchmark/inventory.go:179)	FUNCDATA	$0, gclocals·wgcWObbY2HYnK2SU/U22lA==(SB)
	0x0000 00000 (/home/ruben/Workspace/go/inventory_benchmark/inventory.go:179)	FUNCDATA	$1, gclocals·J5F+7Qw7O7ve2QcWC7DpeQ==(SB)
	0x0000 00000 (/home/ruben/Workspace/go/inventory_benchmark/inventory.go:179)	FUNCDATA	$5, <unlinkable>.SWA_TotalWeightOfInventory.arginfo1(SB)
	0x0000 00000 (/home/ruben/Workspace/go/inventory_benchmark/inventory.go:179)	FUNCDATA	$6, <unlinkable>.SWA_TotalWeightOfInventory.argliveinfo(SB)
	0x0000 00000 (/home/ruben/Workspace/go/inventory_benchmark/inventory.go:179)	PCDATA	$3, $1
	0x0000 00000 (/home/ruben/Workspace/go/inventory_benchmark/inventory.go:182)	XORL	CX, CX
	0x0002 00002 (/home/ruben/Workspace/go/inventory_benchmark/inventory.go:182)	XORL	DX, DX
	0x0004 00004 (/home/ruben/Workspace/go/inventory_benchmark/inventory.go:182)	JMP	32
	0x0006 00006 (/home/ruben/Workspace/go/inventory_benchmark/inventory.go:183)	TESTB	AL, (AX)
	0x0008 00008 (/home/ruben/Workspace/go/inventory_benchmark/inventory.go:183)	MOVQ	(AX)(CX*8), BX
	0x000c 00012 (/home/ruben/Workspace/go/inventory_benchmark/inventory.go:183)	MOVQ	120(AX)(CX*8), SI
	0x0011 00017 (/home/ruben/Workspace/go/inventory_benchmark/inventory.go:183)	IMULQ	SI, BX
	0x0015 00021 (/home/ruben/Workspace/go/inventory_benchmark/inventory.go:182)	INCQ	CX
	0x0018 00024 (/home/ruben/Workspace/go/inventory_benchmark/inventory.go:183)	ADDQ	BX, DX
	0x001b 00027 (/home/ruben/Workspace/go/inventory_benchmark/inventory.go:183)	NOP
	0x0020 00032 (/home/ruben/Workspace/go/inventory_benchmark/inventory.go:182)	CMPQ	CX, $15
	0x0024 00036 (/home/ruben/Workspace/go/inventory_benchmark/inventory.go:182)	JLT	6
	0x0026 00038 (/home/ruben/Workspace/go/inventory_benchmark/inventory.go:186)	MOVQ	DX, AX
	0x0029 00041 (/home/ruben/Workspace/go/inventory_benchmark/inventory.go:186)	RET
	0x0000 31 c9 31 d2 eb 1a 84 00 48 8b 1c c8 48 8b 74 c8  1.1.....H...H.t.
	0x0010 78 48 0f af de 48 ff c1 48 01 da 0f 1f 44 00 00  xH...H..H....D..
	0x0020 48 83 f9 0f 7c e0 48 89 d0 c3                    H...|.H...
type:.eq.<unlinkable>.AOSItem STEXT dupok size=245 args=0x10 locals=0x20 funcid=0x0 align=0x0
	0x0000 00000 (<autogenerated>:1)	TEXT	type:.eq.<unlinkable>.AOSItem(SB), DUPOK|ABIInternal, $32-16
	0x0000 00000 (<autogenerated>:1)	CMPQ	SP, 16(R14)
	0x0004 00004 (<autogenerated>:1)	PCDATA	$0, $-2
	0x0004 00004 (<autogenerated>:1)	JLS	215
	0x000a 00010 (<autogenerated>:1)	PCDATA	$0, $-1
	0x000a 00010 (<autogenerated>:1)	PUSHQ	BP
	0x000b 00011 (<autogenerated>:1)	MOVQ	SP, BP
	0x000e 00014 (<autogenerated>:1)	SUBQ	$24, SP
	0x0012 00018 (<autogenerated>:1)	FUNCDATA	$0, gclocals·TjPuuCwdlCpTaRQGRKTrYw==(SB)
	0x0012 00018 (<autogenerated>:1)	FUNCDATA	$1, gclocals·J5F+7Qw7O7ve2QcWC7DpeQ==(SB)
	0x0012 00018 (<autogenerated>:1)	FUNCDATA	$5, type:.eq.<unlinkable>.AOSItem.arginfo1(SB)
	0x0012 00018 (<autogenerated>:1)	FUNCDATA	$6, type:.eq.<unlinkable>.AOSItem.argliveinfo(SB)
	0x0012 00018 (<autogenerated>:1)	PCDATA	$3, $1
	0x0012 00018 (<autogenerated>:1)	MOVQ	(AX), DX
	0x0015 00021 (<autogenerated>:1)	CMPQ	(BX), DX
	0x0018 00024 (<autogenerated>:1)	JNE	207
	0x001e 00030 (<autogenerated>:1)	MOVQ	8(AX), DX
	0x0022 00034 (<autogenerated>:1)	CMPQ	8(BX), DX
	0x0026 00038 (<autogenerated>:1)	JNE	207
	0x002c 00044 (<autogenerated>:1)	MOVBLZX	16(AX), DX
	0x0030 00048 (<autogenerated>:1)	CMPB	16(BX), DL
	0x0033 00051 (<autogenerated>:1)	JNE	207
	0x0039 00057 (<autogenerated>:1)	MOVBLZX	17(AX), DX
	0x003d 00061 (<autogenerated>:1)	NOP
	0x0040 00064 (<autogenerated>:1)	CMPB	17(BX), DL
	0x0043 00067 (<autogenerated>:1)	JNE	207
	0x0049 00073 (<autogenerated>:1)	MOVQ	24(AX), DX
	0x004d 00077 (<autogenerated>:1)	CMPQ	24(BX), DX
	0x0051 00081 (<autogenerated>:1)	JNE	207
	0x0053 00083 (<autogenerated>:1)	MOVQ	32(AX), DX
	0x0057 00087 (<autogenerated>:1)	CMPQ	32(BX), DX
	0x005b 00091 (<autogenerated>:1)	JNE	207
	0x005d 00093 (<autogenerated>:1)	MOVQ	48(AX), CX
	0x0061 00097 (<autogenerated>:1)	CMPQ	48(BX), CX
	0x0065 00101 (<autogenerated>:1)	JNE	207
	0x0067 00103 (<autogenerated>:1)	MOVQ	64(BX), DX
	0x006b 00107 (<autogenerated>:1)	CMPQ	64(AX), DX
	0x006f 00111 (<autogenerated>:1)	JNE	207
	0x0071 00113 (<autogenerated>:1)	MOVQ	AX, <unlinkable>.p+40(SP)
	0x0076 00118 (<autogenerated>:1)	MOVQ	BX, <unlinkable>.q+48(SP)
	0x007b 00123 (<autogenerated>:1)	PCDATA	$3, $-1
	0x007b 00123 (<autogenerated>:1)	MOVQ	40(BX), DX
	0x007f 00127 (<autogenerated>:1)	MOVQ	40(AX), SI
	0x0083 00131 (<autogenerated>:1)	MOVQ	SI, AX
	0x0086 00134 (<autogenerated>:1)	MOVQ	DX, BX
	0x0089 00137 (<autogenerated>:1)	PCDATA	$1, $0
	0x0089 00137 (<autogenerated>:1)	CALL	runtime.memequal(SB)
	0x008e 00142 (<autogenerated>:1)	TESTB	AL, AL
	0x0090 00144 (<autogenerated>:1)	JEQ	207
	0x0092 00146 (<autogenerated>:1)	MOVQ	<unlinkable>.q+48(SP), DX
	0x0097 00151 (<autogenerated>:1)	MOVQ	56(DX), BX
	0x009b 00155 (<autogenerated>:1)	MOVQ	<unlinkable>.p+40(SP), SI
	0x00a0 00160 (<autogenerated>:1)	MOVQ	56(SI), AX
	0x00a4 00164 (<autogenerated>:1)	MOVQ	64(SI), CX
	0x00a8 00168 (<autogenerated>:1)	CALL	runtime.memequal(SB)
	0x00ad 00173 (<autogenerated>:1)	TESTB	AL, AL
	0x00af 00175 (<autogenerated>:1)	JEQ	207
	0x00b1 00177 (<autogenerated>:1)	MOVQ	<unlinkable>.p+40(SP), AX
	0x00b6 00182 (<autogenerated>:1)	ADDQ	$72, AX
	0x00ba 00186 (<autogenerated>:1)	MOVQ	<unlinkable>.q+48(SP), BX
	0x00bf 00191 (<autogenerated>:1)	ADDQ	$72, BX
	0x00c3 00195 (<autogenerated>:1)	MOVL	$22500, CX
	0x00c8 00200 (<autogenerated>:1)	PCDATA	$1, $1
	0x00c8 00200 (<autogenerated>:1)	CALL	runtime.memequal(SB)
	0x00cd 00205 (<autogenerated>:1)	JMP	209
	0x00cf 00207 (<autogenerated>:1)	PCDATA	$3, $1
	0x00cf 00207 (<autogenerated>:1)	XORL	AX, AX
	0x00d1 00209 (<autogenerated>:1)	ADDQ	$24, SP
	0x00d5 00213 (<autogenerated>:1)	POPQ	BP
	0x00d6 00214 (<autogenerated>:1)	RET
	0x00d7 00215 (<autogenerated>:1)	NOP
	0x00d7 00215 (<autogenerated>:1)	PCDATA	$1, $-1
	0x00d7 00215 (<autogenerated>:1)	PCDATA	$0, $-2
	0x00d7 00215 (<autogenerated>:1)	MOVQ	AX, 8(SP)
	0x00dc 00220 (<autogenerated>:1)	MOVQ	BX, 16(SP)
	0x00e1 00225 (<autogenerated>:1)	CALL	runtime.morestack_noctxt(SB)
	0x00e6 00230 (<autogenerated>:1)	PCDATA	$0, $-1
	0x00e6 00230 (<autogenerated>:1)	MOVQ	8(SP), AX
	0x00eb 00235 (<autogenerated>:1)	MOVQ	16(SP), BX
	0x00f0 00240 (<autogenerated>:1)	JMP	0
	0x0000 49 3b 66 10 0f 86 cd 00 00 00 55 48 89 e5 48 83  I;f.......UH..H.
	0x0010 ec 18 48 8b 10 48 39 13 0f 85 b1 00 00 00 48 8b  ..H..H9.......H.
	0x0020 50 08 48 39 53 08 0f 85 a3 00 00 00 0f b6 50 10  P.H9S.........P.
	0x0030 38 53 10 0f 85 96 00 00 00 0f b6 50 11 0f 1f 00  8S.........P....
	0x0040 38 53 11 0f 85 86 00 00 00 48 8b 50 18 48 39 53  8S.......H.P.H9S
	0x0050 18 75 7c 48 8b 50 20 48 39 53 20 75 72 48 8b 48  .u|H.P H9S urH.H
	0x0060 30 48 39 4b 30 75 68 48 8b 53 40 48 39 50 40 75  0H9K0uhH.S@H9P@u
	0x0070 5e 48 89 44 24 28 48 89 5c 24 30 48 8b 53 28 48  ^H.D$(H.\$0H.S(H
	0x0080 8b 70 28 48 89 f0 48 89 d3 e8 00 00 00 00 84 c0  .p(H..H.........
	0x0090 74 3d 48 8b 54 24 30 48 8b 5a 38 48 8b 74 24 28  t=H.T$0H.Z8H.t$(
	0x00a0 48 8b 46 38 48 8b 4e 40 e8 00 00 00 00 84 c0 74  H.F8H.N@.......t
	0x00b0 1e 48 8b 44 24 28 48 83 c0 48 48 8b 5c 24 30 48  .H.D$(H..HH.\$0H
	0x00c0 83 c3 48 b9 e4 57 00 00 e8 00 00 00 00 eb 02 31  ..H..W.........1
	0x00d0 c0 48 83 c4 18 5d c3 48 89 44 24 08 48 89 5c 24  .H...].H.D$.H.\$
	0x00e0 10 e8 00 00 00 00 48 8b 44 24 08 48 8b 5c 24 10  ......H.D$.H.\$.
	0x00f0 e9 0b ff ff ff                                   .....
	rel 138+4 t=R_CALL runtime.memequal+0
	rel 169+4 t=R_CALL runtime.memequal+0
	rel 201+4 t=R_CALL runtime.memequal+0
	rel 226+4 t=R_CALL runtime.morestack_noctxt+0
type:.eq.<unlinkable>.OOPItem STEXT dupok size=245 args=0x10 locals=0x20 funcid=0x0 align=0x0
	0x0000 00000 (<autogenerated>:1)	TEXT	type:.eq.<unlinkable>.OOPItem(SB), DUPOK|ABIInternal, $32-16
	0x0000 00000 (<autogenerated>:1)	CMPQ	SP, 16(R14)
	0x0004 00004 (<autogenerated>:1)	PCDATA	$0, $-2
	0x0004 00004 (<autogenerated>:1)	JLS	215
	0x000a 00010 (<autogenerated>:1)	PCDATA	$0, $-1
	0x000a 00010 (<autogenerated>:1)	PUSHQ	BP
	0x000b 00011 (<autogenerated>:1)	MOVQ	SP, BP
	0x000e 00014 (<autogenerated>:1)	SUBQ	$24, SP
	0x0012 00018 (<autogenerated>:1)	FUNCDATA	$0, gclocals·TjPuuCwdlCpTaRQGRKTrYw==(SB)
	0x0012 00018 (<autogenerated>:1)	FUNCDATA	$1, gclocals·J5F+7Qw7O7ve2QcWC7DpeQ==(SB)
	0x0012 00018 (<autogenerated>:1)	FUNCDATA	$5, type:.eq.<unlinkable>.OOPItem.arginfo1(SB)
	0x0012 00018 (<autogenerated>:1)	FUNCDATA	$6, type:.eq.<unlinkable>.OOPItem.argliveinfo(SB)
	0x0012 00018 (<autogenerated>:1)	PCDATA	$3, $1
	0x0012 00018 (<autogenerated>:1)	MOVQ	(AX), DX
	0x0015 00021 (<autogenerated>:1)	CMPQ	(BX), DX
	0x0018 00024 (<autogenerated>:1)	JNE	207
	0x001e 00030 (<autogenerated>:1)	MOVQ	8(AX), DX
	0x0022 00034 (<autogenerated>:1)	CMPQ	8(BX), DX
	0x0026 00038 (<autogenerated>:1)	JNE	207
	0x002c 00044 (<autogenerated>:1)	MOVBLZX	16(AX), DX
	0x0030 00048 (<autogenerated>:1)	CMPB	16(BX), DL
	0x0033 00051 (<autogenerated>:1)	JNE	207
	0x0039 00057 (<autogenerated>:1)	MOVBLZX	17(AX), DX
	0x003d 00061 (<autogenerated>:1)	NOP
	0x0040 00064 (<autogenerated>:1)	CMPB	17(BX), DL
	0x0043 00067 (<autogenerated>:1)	JNE	207
	0x0049 00073 (<autogenerated>:1)	MOVQ	24(AX), DX
	0x004d 00077 (<autogenerated>:1)	CMPQ	24(BX), DX
	0x0051 00081 (<autogenerated>:1)	JNE	207
	0x0053 00083 (<autogenerated>:1)	MOVQ	32(AX), DX
	0x0057 00087 (<autogenerated>:1)	CMPQ	32(BX), DX
	0x005b 00091 (<autogenerated>:1)	JNE	207
	0x005d 00093 (<autogenerated>:1)	MOVQ	48(AX), CX
	0x0061 00097 (<autogenerated>:1)	CMPQ	48(BX), CX
	0x0065 00101 (<autogenerated>:1)	JNE	207
	0x0067 00103 (<autogenerated>:1)	MOVQ	64(BX), DX
	0x006b 00107 (<autogenerated>:1)	CMPQ	64(AX), DX
	0x006f 00111 (<autogenerated>:1)	JNE	207
	0x0071 00113 (<autogenerated>:1)	MOVQ	AX, <unlinkable>.p+40(SP)
	0x0076 00118 (<autogenerated>:1)	MOVQ	BX, <unlinkable>.q+48(SP)
	0x007b 00123 (<autogenerated>:1)	PCDATA	$3, $-1
	0x007b 00123 (<autogenerated>:1)	MOVQ	40(BX), DX
	0x007f 00127 (<autogenerated>:1)	MOVQ	40(AX), SI
	0x0083 00131 (<autogenerated>:1)	MOVQ	SI, AX
	0x0086 00134 (<autogenerated>:1)	MOVQ	DX, BX
	0x0089 00137 (<autogenerated>:1)	PCDATA	$1, $0
	0x0089 00137 (<autogenerated>:1)	CALL	runtime.memequal(SB)
	0x008e 00142 (<autogenerated>:1)	TESTB	AL, AL
	0x0090 00144 (<autogenerated>:1)	JEQ	207
	0x0092 00146 (<autogenerated>:1)	MOVQ	<unlinkable>.q+48(SP), DX
	0x0097 00151 (<autogenerated>:1)	MOVQ	56(DX), BX
	0x009b 00155 (<autogenerated>:1)	MOVQ	<unlinkable>.p+40(SP), SI
	0x00a0 00160 (<autogenerated>:1)	MOVQ	56(SI), AX
	0x00a4 00164 (<autogenerated>:1)	MOVQ	64(SI), CX
	0x00a8 00168 (<autogenerated>:1)	CALL	runtime.memequal(SB)
	0x00ad 00173 (<autogenerated>:1)	TESTB	AL, AL
	0x00af 00175 (<autogenerated>:1)	JEQ	207
	0x00b1 00177 (<autogenerated>:1)	MOVQ	<unlinkable>.p+40(SP), AX
	0x00b6 00182 (<autogenerated>:1)	ADDQ	$72, AX
	0x00ba 00186 (<autogenerated>:1)	MOVQ	<unlinkable>.q+48(SP), BX
	0x00bf 00191 (<autogenerated>:1)	ADDQ	$72, BX
	0x00c3 00195 (<autogenerated>:1)	MOVL	$22500, CX
	0x00c8 00200 (<autogenerated>:1)	PCDATA	$1, $1
	0x00c8 00200 (<autogenerated>:1)	CALL	runtime.memequal(SB)
	0x00cd 00205 (<autogenerated>:1)	JMP	209
	0x00cf 00207 (<autogenerated>:1)	PCDATA	$3, $1
	0x00cf 00207 (<autogenerated>:1)	XORL	AX, AX
	0x00d1 00209 (<autogenerated>:1)	ADDQ	$24, SP
	0x00d5 00213 (<autogenerated>:1)	POPQ	BP
	0x00d6 00214 (<autogenerated>:1)	RET
	0x00d7 00215 (<autogenerated>:1)	NOP
	0x00d7 00215 (<autogenerated>:1)	PCDATA	$1, $-1
	0x00d7 00215 (<autogenerated>:1)	PCDATA	$0, $-2
	0x00d7 00215 (<autogenerated>:1)	MOVQ	AX, 8(SP)
	0x00dc 00220 (<autogenerated>:1)	MOVQ	BX, 16(SP)
	0x00e1 00225 (<autogenerated>:1)	CALL	runtime.morestack_noctxt(SB)
	0x00e6 00230 (<autogenerated>:1)	PCDATA	$0, $-1
	0x00e6 00230 (<autogenerated>:1)	MOVQ	8(SP), AX
	0x00eb 00235 (<autogenerated>:1)	MOVQ	16(SP), BX
	0x00f0 00240 (<autogenerated>:1)	JMP	0
	0x0000 49 3b 66 10 0f 86 cd 00 00 00 55 48 89 e5 48 83  I;f.......UH..H.
	0x0010 ec 18 48 8b 10 48 39 13 0f 85 b1 00 00 00 48 8b  ..H..H9.......H.
	0x0020 50 08 48 39 53 08 0f 85 a3 00 00 00 0f b6 50 10  P.H9S.........P.
	0x0030 38 53 10 0f 85 96 00 00 00 0f b6 50 11 0f 1f 00  8S.........P....
	0x0040 38 53 11 0f 85 86 00 00 00 48 8b 50 18 48 39 53  8S.......H.P.H9S
	0x0050 18 75 7c 48 8b 50 20 48 39 53 20 75 72 48 8b 48  .u|H.P H9S urH.H
	0x0060 30 48 39 4b 30 75 68 48 8b 53 40 48 39 50 40 75  0H9K0uhH.S@H9P@u
	0x0070 5e 48 89 44 24 28 48 89 5c 24 30 48 8b 53 28 48  ^H.D$(H.\$0H.S(H
	0x0080 8b 70 28 48 89 f0 48 89 d3 e8 00 00 00 00 84 c0  .p(H..H.........
	0x0090 74 3d 48 8b 54 24 30 48 8b 5a 38 48 8b 74 24 28  t=H.T$0H.Z8H.t$(
	0x00a0 48 8b 46 38 48 8b 4e 40 e8 00 00 00 00 84 c0 74  H.F8H.N@.......t
	0x00b0 1e 48 8b 44 24 28 48 83 c0 48 48 8b 5c 24 30 48  .H.D$(H..HH.\$0H
	0x00c0 83 c3 48 b9 e4 57 00 00 e8 00 00 00 00 eb 02 31  ..H..W.........1
	0x00d0 c0 48 83 c4 18 5d c3 48 89 44 24 08 48 89 5c 24  .H...].H.D$.H.\$
	0x00e0 10 e8 00 00 00 00 48 8b 44 24 08 48 8b 5c 24 10  ......H.D$.H.\$.
	0x00f0 e9 0b ff ff ff                                   .....
	rel 138+4 t=R_CALL runtime.memequal+0
	rel 169+4 t=R_CALL runtime.memequal+0
	rel 201+4 t=R_CALL runtime.memequal+0
	rel 226+4 t=R_CALL runtime.morestack_noctxt+0
type:.eq.<unlinkable>.AOSInventory STEXT dupok size=52 args=0x10 locals=0x18 funcid=0x0 align=0x0
	0x0000 00000 (<autogenerated>:1)	TEXT	type:.eq.<unlinkable>.AOSInventory(SB), DUPOK|ABIInternal, $24-16
	0x0000 00000 (<autogenerated>:1)	CMPQ	SP, 16(R14)
	0x0004 00004 (<autogenerated>:1)	PCDATA	$0, $-2
	0x0004 00004 (<autogenerated>:1)	JLS	25
	0x0006 00006 (<autogenerated>:1)	PCDATA	$0, $-1
	0x0006 00006 (<autogenerated>:1)	PUSHQ	BP
	0x0007 00007 (<autogenerated>:1)	MOVQ	SP, BP
	0x000a 00010 (<autogenerated>:1)	SUBQ	$16, SP
	0x000e 00014 (<autogenerated>:1)	FUNCDATA	$0, gclocals·TjPuuCwdlCpTaRQGRKTrYw==(SB)
	0x000e 00014 (<autogenerated>:1)	FUNCDATA	$1, gclocals·J5F+7Qw7O7ve2QcWC7DpeQ==(SB)
	0x000e 00014 (<autogenerated>:1)	FUNCDATA	$5, type:.eq.<unlinkable>.AOSInventory.arginfo1(SB)
	0x000e 00014 (<autogenerated>:1)	FUNCDATA	$6, type:.eq.<unlinkable>.AOSInventory.argliveinfo(SB)
	0x000e 00014 (<autogenerated>:1)	PCDATA	$3, $1
	0x000e 00014 (<autogenerated>:1)	PCDATA	$1, $1
	0x000e 00014 (<autogenerated>:1)	CALL	type:.eq.[15]<unlinkable>.AOSItem(SB)
	0x0013 00019 (<autogenerated>:1)	ADDQ	$16, SP
	0x0017 00023 (<autogenerated>:1)	POPQ	BP
	0x0018 00024 (<autogenerated>:1)	RET
	0x0019 00025 (<autogenerated>:1)	NOP
	0x0019 00025 (<autogenerated>:1)	PCDATA	$1, $-1
	0x0019 00025 (<autogenerated>:1)	PCDATA	$0, $-2
	0x0019 00025 (<autogenerated>:1)	MOVQ	AX, 8(SP)
	0x001e 00030 (<autogenerated>:1)	MOVQ	BX, 16(SP)
	0x0023 00035 (<autogenerated>:1)	CALL	runtime.morestack_noctxt(SB)
	0x0028 00040 (<autogenerated>:1)	PCDATA	$0, $-1
	0x0028 00040 (<autogenerated>:1)	MOVQ	8(SP), AX
	0x002d 00045 (<autogenerated>:1)	MOVQ	16(SP), BX
	0x0032 00050 (<autogenerated>:1)	JMP	0
	0x0000 49 3b 66 10 76 13 55 48 89 e5 48 83 ec 10 e8 00  I;f.v.UH..H.....
	0x0010 00 00 00 48 83 c4 10 5d c3 48 89 44 24 08 48 89  ...H...].H.D$.H.
	0x0020 5c 24 10 e8 00 00 00 00 48 8b 44 24 08 48 8b 5c  \$......H.D$.H.\
	0x0030 24 10 eb cc                                      $...
	rel 15+4 t=R_CALL type:.eq.[15]<unlinkable>.AOSItem+0
	rel 36+4 t=R_CALL runtime.morestack_noctxt+0
type:.eq.[15]<unlinkable>.AOSItem STEXT dupok size=2072 args=0x10 locals=0x30 funcid=0x0 align=0x0
	0x0000 00000 (<autogenerated>:1)	TEXT	type:.eq.[15]<unlinkable>.AOSItem(SB), DUPOK|ABIInternal, $48-16
	0x0000 00000 (<autogenerated>:1)	CMPQ	SP, 16(R14)
	0x0004 00004 (<autogenerated>:1)	PCDATA	$0, $-2
	0x0004 00004 (<autogenerated>:1)	JLS	2042
	0x000a 00010 (<autogenerated>:1)	PCDATA	$0, $-1
	0x000a 00010 (<autogenerated>:1)	PUSHQ	BP
	0x000b 00011 (<autogenerated>:1)	MOVQ	SP, BP
	0x000e 00014 (<autogenerated>:1)	SUBQ	$40, SP
	0x0012 00018 (<autogenerated>:1)	FUNCDATA	$0, gclocals·TjPuuCwdlCpTaRQGRKTrYw==(SB)
	0x0012 00018 (<autogenerated>:1)	FUNCDATA	$1, gclocals·J5F+7Qw7O7ve2QcWC7DpeQ==(SB)
	0x0012 00018 (<autogenerated>:1)	FUNCDATA	$5, type:.eq.[15]<unlinkable>.AOSItem.arginfo1(SB)
	0x0012 00018 (<autogenerated>:1)	FUNCDATA	$6, type:.eq.[15]<unlinkable>.AOSItem.argliveinfo(SB)
	0x0012 00018 (<autogenerated>:1)	PCDATA	$3, $1
	0x0012 00018 (<autogenerated>:1)	XORL	CX, CX
	0x0014 00020 (<autogenerated>:1)	JMP	32
	0x0016 00022 (<autogenerated>:1)	ADDQ	$4, CX
	0x001a 00026 (<autogenerated>:1)	NOP
	0x0020 00032 (<autogenerated>:1)	CMPQ	CX, $12
	0x0024 00036 (<autogenerated>:1)	JGE	974
	0x002a 00042 (<autogenerated>:1)	IMUL3Q	$22576, CX, DX
	0x0031 00049 (<autogenerated>:1)	MOVQ	(BX)(DX*1), SI
	0x0035 00053 (<autogenerated>:1)	MOVQ	(AX)(DX*1), DI
	0x0039 00057 (<autogenerated>:1)	NOP
	0x0040 00064 (<autogenerated>:1)	CMPQ	SI, DI
	0x0043 00067 (<autogenerated>:1)	JNE	1561
	0x0049 00073 (<autogenerated>:1)	MOVQ	8(BX)(DX*1), SI
	0x004e 00078 (<autogenerated>:1)	MOVQ	8(AX)(DX*1), DI
	0x0053 00083 (<autogenerated>:1)	CMPQ	SI, DI
	0x0056 00086 (<autogenerated>:1)	JNE	1561
	0x005c 00092 (<autogenerated>:1)	MOVBLZX	16(BX)(DX*1), SI
	0x0061 00097 (<autogenerated>:1)	MOVBLZX	16(AX)(DX*1), DI
	0x0066 00102 (<autogenerated>:1)	CMPB	SIB, DIB
	0x0069 00105 (<autogenerated>:1)	JNE	1561
	0x006f 00111 (<autogenerated>:1)	MOVBLZX	17(BX)(DX*1), SI
	0x0074 00116 (<autogenerated>:1)	MOVBLZX	17(AX)(DX*1), DI
	0x0079 00121 (<autogenerated>:1)	NOP
	0x0080 00128 (<autogenerated>:1)	CMPB	SIB, DIB
	0x0083 00131 (<autogenerated>:1)	JNE	1561
	0x0089 00137 (<autogenerated>:1)	MOVQ	24(BX)(DX*1), SI
	0x008e 00142 (<autogenerated>:1)	MOVQ	24(AX)(DX*1), DI
	0x0093 00147 (<autogenerated>:1)	CMPQ	SI, DI
	0x0096 00150 (<autogenerated>:1)	JNE	1561
	0x009c 00156 (<autogenerated>:1)	MOVQ	32(BX)(DX*1), SI
	0x00a1 00161 (<autogenerated>:1)	MOVQ	32(AX)(DX*1), DI
	0x00a6 00166 (<autogenerated>:1)	CMPQ	SI, DI
	0x00a9 00169 (<autogenerated>:1)	JNE	1561
	0x00af 00175 (<autogenerated>:1)	MOVQ	48(AX)(DX*1), SI
	0x00b4 00180 (<autogenerated>:1)	MOVQ	48(BX)(DX*1), DI
	0x00b9 00185 (<autogenerated>:1)	NOP
	0x00c0 00192 (<autogenerated>:1)	CMPQ	SI, DI
	0x00c3 00195 (<autogenerated>:1)	JNE	1561
	0x00c9 00201 (<autogenerated>:1)	MOVQ	64(BX)(DX*1), SI
	0x00ce 00206 (<autogenerated>:1)	MOVQ	64(AX)(DX*1), DI
	0x00d3 00211 (<autogenerated>:1)	CMPQ	SI, DI
	0x00d6 00214 (<autogenerated>:1)	JNE	1561
	0x00dc 00220 (<autogenerated>:1)	MOVQ	22576(DX)(BX*1), SI
	0x00e4 00228 (<autogenerated>:1)	MOVQ	22576(DX)(AX*1), DI
	0x00ec 00236 (<autogenerated>:1)	CMPQ	SI, DI
	0x00ef 00239 (<autogenerated>:1)	JNE	1561
	0x00f5 00245 (<autogenerated>:1)	MOVQ	22584(DX)(BX*1), SI
	0x00fd 00253 (<autogenerated>:1)	MOVQ	22584(DX)(AX*1), DI
	0x0105 00261 (<autogenerated>:1)	CMPQ	SI, DI
	0x0108 00264 (<autogenerated>:1)	JNE	1561
	0x010e 00270 (<autogenerated>:1)	MOVBLZX	22592(DX)(BX*1), SI
	0x0116 00278 (<autogenerated>:1)	MOVBLZX	22592(DX)(AX*1), DI
	0x011e 00286 (<autogenerated>:1)	NOP
	0x0120 00288 (<autogenerated>:1)	CMPB	SIB, DIB
	0x0123 00291 (<autogenerated>:1)	JNE	1561
	0x0129 00297 (<autogenerated>:1)	MOVBLZX	22593(DX)(BX*1), SI
	0x0131 00305 (<autogenerated>:1)	MOVBLZX	22593(DX)(AX*1), DI
	0x0139 00313 (<autogenerated>:1)	NOP
	0x0140 00320 (<autogenerated>:1)	CMPB	SIB, DIB
	0x0143 00323 (<autogenerated>:1)	JNE	1561
	0x0149 00329 (<autogenerated>:1)	MOVQ	22600(DX)(BX*1), SI
	0x0151 00337 (<autogenerated>:1)	MOVQ	22600(DX)(AX*1), DI
	0x0159 00345 (<autogenerated>:1)	NOP
	0x0160 00352 (<autogenerated>:1)	CMPQ	SI, DI
	0x0163 00355 (<autogenerated>:1)	JNE	1561
	0x0169 00361 (<autogenerated>:1)	MOVQ	22608(DX)(BX*1), SI
	0x0171 00369 (<autogenerated>:1)	MOVQ	22608(DX)(AX*1), DI
	0x0179 00377 (<autogenerated>:1)	NOP
	0x0180 00384 (<autogenerated>:1)	CMPQ	SI, DI
	0x0183 00387 (<autogenerated>:1)	JNE	1561
	0x0189 00393 (<autogenerated>:1)	MOVQ	22624(DX)(BX*1), SI
	0x0191 00401 (<autogenerated>:1)	MOVQ	22624(AX)(DX*1), DI
	0x0199 00409 (<autogenerated>:1)	NOP
	0x01a0 00416 (<autogenerated>:1)	CMPQ	SI, DI
	0x01a3 00419 (<autogenerated>:1)	JNE	1561
	0x01a9 00425 (<autogenerated>:1)	MOVQ	22640(DX)(BX*1), SI
	0x01b1 00433 (<autogenerated>:1)	MOVQ	22640(AX)(DX*1), DI
	0x01b9 00441 (<autogenerated>:1)	NOP
	0x01c0 00448 (<autogenerated>:1)	CMPQ	SI, DI
	0x01c3 00451 (<autogenerated>:1)	JNE	1561
	0x01c9 00457 (<autogenerated>:1)	MOVQ	45152(DX)(BX*1), SI
	0x01d1 00465 (<autogenerated>:1)	MOVQ	45152(DX)(AX*1), DI
	0x01d9 00473 (<autogenerated>:1)	NOP
	0x01e0 00480 (<autogenerated>:1)	CMPQ	SI, DI
	0x01e3 00483 (<autogenerated>:1)	JNE	1561
	0x01e9 00489 (<autogenerated>:1)	MOVQ	45160(DX)(BX*1), SI
	0x01f1 00497 (<autogenerated>:1)	MOVQ	45160(DX)(AX*1), DI
	0x01f9 00505 (<autogenerated>:1)	NOP
	0x0200 00512 (<autogenerated>:1)	CMPQ	SI, DI
	0x0203 00515 (<autogenerated>:1)	JNE	1561
	0x0209 00521 (<autogenerated>:1)	MOVBLZX	45168(DX)(BX*1), SI
	0x0211 00529 (<autogenerated>:1)	MOVBLZX	45168(DX)(AX*1), DI
	0x0219 00537 (<autogenerated>:1)	NOP
	0x0220 00544 (<autogenerated>:1)	CMPB	SIB, DIB
	0x0223 00547 (<autogenerated>:1)	JNE	1561
	0x0229 00553 (<autogenerated>:1)	MOVBLZX	45169(DX)(BX*1), SI
	0x0231 00561 (<autogenerated>:1)	MOVBLZX	45169(DX)(AX*1), DI
	0x0239 00569 (<autogenerated>:1)	NOP
	0x0240 00576 (<autogenerated>:1)	CMPB	SIB, DIB
	0x0243 00579 (<autogenerated>:1)	JNE	1561
	0x0249 00585 (<autogenerated>:1)	MOVQ	45176(DX)(BX*1), SI
	0x0251 00593 (<autogenerated>:1)	MOVQ	45176(DX)(AX*1), DI
	0x0259 00601 (<autogenerated>:1)	NOP
	0x0260 00608 (<autogenerated>:1)	CMPQ	SI, DI
	0x0263 00611 (<autogenerated>:1)	JNE	1561
	0x0269 00617 (<autogenerated>:1)	MOVQ	45184(DX)(BX*1), SI
	0x0271 00625 (<autogenerated>:1)	MOVQ	45184(DX)(AX*1), DI
	0x0279 00633 (<autogenerated>:1)	NOP
	0x0280 00640 (<autogenerated>:1)	CMPQ	SI, DI
	0x0283 00643 (<autogenerated>:1)	JNE	1561
	0x0289 00649 (<autogenerated>:1)	MOVQ	45200(DX)(BX*1), SI
	0x0291 00657 (<autogenerated>:1)	MOVQ	45200(DX)(AX*1), DI
	0x0299 00665 (<autogenerated>:1)	NOP
	0x02a0 00672 (<autogenerated>:1)	CMPQ	SI, DI
	0x02a3 00675 (<autogenerated>:1)	JNE	1561
	0x02a9 00681 (<autogenerated>:1)	MOVQ	45216(DX)(AX*1), SI
	0x02b1 00689 (<autogenerated>:1)	MOVQ	45216(DX)(BX*1), DI
	0x02b9 00697 (<autogenerated>:1)	NOP
	0x02c0 00704 (<autogenerated>:1)	CMPQ	SI, DI
	0x02c3 00707 (<autogenerated>:1)	JNE	1561
	0x02c9 00713 (<autogenerated>:1)	MOVQ	67728(DX)(BX*1), SI
	0x02d1 00721 (<autogenerated>:1)	MOVQ	67728(DX)(AX*1), DI
	0x02d9 00729 (<autogenerated>:1)	NOP
	0x02e0 00736 (<autogenerated>:1)	CMPQ	SI, DI
	0x02e3 00739 (<autogenerated>:1)	JNE	1561
	0x02e9 00745 (<autogenerated>:1)	MOVQ	67736(DX)(BX*1), SI
	0x02f1 00753 (<autogenerated>:1)	MOVQ	67736(DX)(AX*1), DI
	0x02f9 00761 (<autogenerated>:1)	NOP
	0x0300 00768 (<autogenerated>:1)	CMPQ	SI, DI
	0x0303 00771 (<autogenerated>:1)	JNE	1561
	0x0309 00777 (<autogenerated>:1)	MOVBLZX	67744(DX)(BX*1), SI
	0x0311 00785 (<autogenerated>:1)	MOVBLZX	67744(DX)(AX*1), DI
	0x0319 00793 (<autogenerated>:1)	NOP
	0x0320 00800 (<autogenerated>:1)	CMPB	SIB, DIB
	0x0323 00803 (<autogenerated>:1)	JNE	1561
	0x0329 00809 (<autogenerated>:1)	MOVBLZX	67745(DX)(BX*1), SI
	0x0331 00817 (<autogenerated>:1)	MOVBLZX	67745(DX)(AX*1), DI
	0x0339 00825 (<autogenerated>:1)	NOP
	0x0340 00832 (<autogenerated>:1)	CMPB	SIB, DIB
	0x0343 00835 (<autogenerated>:1)	JNE	1561
	0x0349 00841 (<autogenerated>:1)	MOVQ	67752(DX)(BX*1), SI
	0x0351 00849 (<autogenerated>:1)	MOVQ	67752(DX)(AX*1), DI
	0x0359 00857 (<autogenerated>:1)	NOP
	0x0360 00864 (<autogenerated>:1)	CMPQ	SI, DI
	0x0363 00867 (<autogenerated>:1)	JNE	1561
	0x0369 00873 (<autogenerated>:1)	MOVQ	67760(DX)(BX*1), SI
	0x0371 00881 (<autogenerated>:1)	MOVQ	67760(DX)(AX*1), DI
	0x0379 00889 (<autogenerated>:1)	NOP
	0x0380 00896 (<autogenerated>:1)	CMPQ	SI, DI
	0x0383 00899 (<autogenerated>:1)	JNE	1561
	0x0389 00905 (<autogenerated>:1)	MOVQ	67776(DX)(BX*1), SI
	0x0391 00913 (<autogenerated>:1)	MOVQ	67776(DX)(AX*1), DI
	0x0399 00921 (<autogenerated>:1)	NOP
	0x03a0 00928 (<autogenerated>:1)	CMPQ	SI, DI
	0x03a3 00931 (<autogenerated>:1)	JNE	1561
	0x03a9 00937 (<autogenerated>:1)	MOVQ	67792(DX)(AX*1), SI
	0x03b1 00945 (<autogenerated>:1)	MOVQ	67792(DX)(BX*1), DX
	0x03b9 00953 (<autogenerated>:1)	NOP
	0x03c0 00960 (<autogenerated>:1)	CMPQ	SI, DX
	0x03c3 00963 (<autogenerated>:1)	JEQ	22
	0x03c9 00969 (<autogenerated>:1)	JMP	1561
	0x03ce 00974 (<autogenerated>:1)	MOVQ	270912(AX), DX
	0x03d5 00981 (<autogenerated>:1)	NOP
	0x03e0 00992 (<autogenerated>:1)	CMPQ	270912(BX), DX
	0x03e7 00999 (<autogenerated>:1)	JNE	1561
	0x03ed 01005 (<autogenerated>:1)	MOVQ	270920(AX), DX
	0x03f4 01012 (<autogenerated>:1)	NOP
	0x0400 01024 (<autogenerated>:1)	CMPQ	270920(BX), DX
	0x0407 01031 (<autogenerated>:1)	JNE	1561
	0x040d 01037 (<autogenerated>:1)	MOVBLZX	270928(AX), DX
	0x0414 01044 (<autogenerated>:1)	NOP
	0x0420 01056 (<autogenerated>:1)	CMPB	270928(BX), DL
	0x0426 01062 (<autogenerated>:1)	JNE	1561
	0x042c 01068 (<autogenerated>:1)	MOVBLZX	270929(AX), DX
	0x0433 01075 (<autogenerated>:1)	CMPB	270929(BX), DL
	0x0439 01081 (<autogenerated>:1)	JNE	1561
	0x043f 01087 (<autogenerated>:1)	MOVQ	270936(AX), DX
	0x0446 01094 (<autogenerated>:1)	CMPQ	270936(BX), DX
	0x044d 01101 (<autogenerated>:1)	JNE	1561
	0x0453 01107 (<autogenerated>:1)	MOVQ	270944(AX), DX
	0x045a 01114 (<autogenerated>:1)	NOP
	0x0460 01120 (<autogenerated>:1)	CMPQ	270944(BX), DX
	0x0467 01127 (<autogenerated>:1)	JNE	1561
	0x046d 01133 (<autogenerated>:1)	MOVQ	270960(AX), DX
	0x0474 01140 (<autogenerated>:1)	NOP
	0x0480 01152 (<autogenerated>:1)	CMPQ	270960(BX), DX
	0x0487 01159 (<autogenerated>:1)	JNE	1561
	0x048d 01165 (<autogenerated>:1)	MOVQ	270976(AX), DX
	0x0494 01172 (<autogenerated>:1)	NOP
	0x04a0 01184 (<autogenerated>:1)	CMPQ	270976(BX), DX
	0x04a7 01191 (<autogenerated>:1)	JNE	1561
	0x04ad 01197 (<autogenerated>:1)	MOVQ	293488(AX), DX
	0x04b4 01204 (<autogenerated>:1)	NOP
	0x04c0 01216 (<autogenerated>:1)	CMPQ	293488(BX), DX
	0x04c7 01223 (<autogenerated>:1)	JNE	1561
	0x04cd 01229 (<autogenerated>:1)	MOVQ	293496(AX), DX
	0x04d4 01236 (<autogenerated>:1)	NOP
	0x04e0 01248 (<autogenerated>:1)	CMPQ	293496(BX), DX
	0x04e7 01255 (<autogenerated>:1)	JNE	1561
	0x04ed 01261 (<autogenerated>:1)	MOVBLZX	293504(AX), DX
	0x04f4 01268 (<autogenerated>:1)	NOP
	0x0500 01280 (<autogenerated>:1)	CMPB	293504(BX), DL
	0x0506 01286 (<autogenerated>:1)	JNE	1561
	0x050c 01292 (<autogenerated>:1)	MOVBLZX	293505(AX), DX
	0x0513 01299 (<autogenerated>:1)	CMPB	293505(BX), DL
	0x0519 01305 (<autogenerated>:1)	JNE	1561
	0x051f 01311 (<autogenerated>:1)	MOVQ	293512(AX), DX
	0x0526 01318 (<autogenerated>:1)	CMPQ	293512(BX), DX
	0x052d 01325 (<autogenerated>:1)	JNE	1561
	0x0533 01331 (<autogenerated>:1)	MOVQ	293520(AX), DX
	0x053a 01338 (<autogenerated>:1)	NOP
	0x0540 01344 (<autogenerated>:1)	CMPQ	293520(BX), DX
	0x0547 01351 (<autogenerated>:1)	JNE	1561
	0x054d 01357 (<autogenerated>:1)	MOVQ	293536(AX), DX
	0x0554 01364 (<autogenerated>:1)	NOP
	0x0560 01376 (<autogenerated>:1)	CMPQ	293536(BX), DX
	0x0567 01383 (<autogenerated>:1)	JNE	1561
	0x056d 01389 (<autogenerated>:1)	MOVQ	293552(AX), DX
	0x0574 01396 (<autogenerated>:1)	NOP
	0x0580 01408 (<autogenerated>:1)	CMPQ	293552(BX), DX
	0x0587 01415 (<autogenerated>:1)	JNE	1561
	0x058d 01421 (<autogenerated>:1)	MOVQ	316064(AX), DX
	0x0594 01428 (<autogenerated>:1)	CMPQ	316064(BX), DX
	0x059b 01435 (<autogenerated>:1)	JNE	1561
	0x059d 01437 (<autogenerated>:1)	MOVQ	316072(AX), DX
	0x05a4 01444 (<autogenerated>:1)	CMPQ	316072(BX), DX
	0x05ab 01451 (<autogenerated>:1)	JNE	1561
	0x05ad 01453 (<autogenerated>:1)	MOVBLZX	316080(AX), DX
	0x05b4 01460 (<autogenerated>:1)	CMPB	316080(BX), DL
	0x05ba 01466 (<autogenerated>:1)	JNE	1561
	0x05bc 01468 (<autogenerated>:1)	MOVBLZX	316081(AX), DX
	0x05c3 01475 (<autogenerated>:1)	CMPB	316081(BX), DL
	0x05c9 01481 (<autogenerated>:1)	JNE	1561
	0x05cb 01483 (<autogenerated>:1)	MOVQ	316088(AX), DX
	0x05d2 01490 (<autogenerated>:1)	CMPQ	316088(BX), DX
	0x05d9 01497 (<autogenerated>:1)	JNE	1561
	0x05db 01499 (<autogenerated>:1)	MOVQ	316096(AX), DX
	0x05e2 01506 (<autogenerated>:1)	CMPQ	316096(BX), DX
	0x05e9 01513 (<autogenerated>:1)	JNE	1561
	0x05eb 01515 (<autogenerated>:1)	MOVQ	316112(AX), DX
	0x05f2 01522 (<autogenerated>:1)	CMPQ	316112(BX), DX
	0x05f9 01529 (<autogenerated>:1)	JNE	1561
	0x05fb 01531 (<autogenerated>:1)	MOVQ	316128(AX), DX
	0x0602 01538 (<autogenerated>:1)	CMPQ	316128(BX), DX
	0x0609 01545 (<autogenerated>:1)	JNE	1561
	0x060b 01547 (<autogenerated>:1)	MOVQ	AX, <unlinkable>.p+56(SP)
	0x0610 01552 (<autogenerated>:1)	MOVQ	BX, <unlinkable>.q+64(SP)
	0x0615 01557 (<autogenerated>:1)	PCDATA	$3, $-1
	0x0615 01557 (<autogenerated>:1)	XORL	CX, CX
	0x0617 01559 (<autogenerated>:1)	JMP	1588
	0x0619 01561 (<autogenerated>:1)	PCDATA	$3, $1
	0x0619 01561 (<autogenerated>:1)	XORL	AX, AX
	0x061b 01563 (<autogenerated>:1)	ADDQ	$40, SP
	0x061f 01567 (<autogenerated>:1)	POPQ	BP
	0x0620 01568 (<autogenerated>:1)	RET
	0x0621 01569 (<autogenerated>:1)	PCDATA	$3, $-1
	0x0621 01569 (<autogenerated>:1)	MOVQ	<unlinkable>..autotmp_32+32(SP), CX
	0x0626 01574 (<autogenerated>:1)	ADDQ	$2, CX
	0x062a 01578 (<autogenerated>:1)	MOVQ	<unlinkable>.p+56(SP), AX
	0x062f 01583 (<autogenerated>:1)	MOVQ	<unlinkable>.q+64(SP), BX
	0x0634 01588 (<autogenerated>:1)	CMPQ	CX, $14
	0x0638 01592 (<autogenerated>:1)	JGE	1912
	0x063e 01598 (<autogenerated>:1)	MOVQ	CX, <unlinkable>..autotmp_32+32(SP)
	0x0643 01603 (<autogenerated>:1)	IMUL3Q	$22576, CX, DX
	0x064a 01610 (<autogenerated>:1)	MOVQ	DX, <unlinkable>..autotmp_33+24(SP)
	0x064f 01615 (<autogenerated>:1)	MOVQ	40(BX)(DX*1), SI
	0x0654 01620 (<autogenerated>:1)	MOVQ	40(AX)(DX*1), DI
	0x0659 01625 (<autogenerated>:1)	MOVQ	48(AX)(DX*1), R8
	0x065e 01630 (<autogenerated>:1)	MOVQ	DI, AX
	0x0661 01633 (<autogenerated>:1)	MOVQ	SI, BX
	0x0664 01636 (<autogenerated>:1)	MOVQ	R8, CX
	0x0667 01639 (<autogenerated>:1)	PCDATA	$1, $0
	0x0667 01639 (<autogenerated>:1)	CALL	runtime.memequal(SB)
	0x066c 01644 (<autogenerated>:1)	TESTB	AL, AL
	0x066e 01646 (<autogenerated>:1)	JNE	1652
	0x0670 01648 (<autogenerated>:1)	XORL	AX, AX
	0x0672 01650 (<autogenerated>:1)	JMP	1736
	0x0674 01652 (<autogenerated>:1)	MOVQ	<unlinkable>..autotmp_33+24(SP), DX
	0x0679 01657 (<autogenerated>:1)	MOVQ	<unlinkable>.p+56(SP), SI
	0x067e 01662 (<autogenerated>:1)	MOVQ	56(SI)(DX*1), AX
	0x0683 01667 (<autogenerated>:1)	MOVQ	<unlinkable>.q+64(SP), DI
	0x0688 01672 (<autogenerated>:1)	MOVQ	56(DI)(DX*1), BX
	0x068d 01677 (<autogenerated>:1)	MOVQ	64(SI)(DX*1), CX
	0x0692 01682 (<autogenerated>:1)	CALL	runtime.memequal(SB)
	0x0697 01687 (<autogenerated>:1)	TESTB	AL, AL
	0x0699 01689 (<autogenerated>:1)	JNE	1695
	0x069b 01691 (<autogenerated>:1)	XORL	AX, AX
	0x069d 01693 (<autogenerated>:1)	JMP	1736
	0x069f 01695 (<autogenerated>:1)	MOVQ	<unlinkable>..autotmp_33+24(SP), DX
	0x06a4 01700 (<autogenerated>:1)	MOVQ	<unlinkable>.p+56(SP), SI
	0x06a9 01705 (<autogenerated>:1)	LEAQ	(SI)(DX*1), AX
	0x06ad 01709 (<autogenerated>:1)	LEAQ	72(AX), AX
	0x06b1 01713 (<autogenerated>:1)	MOVQ	<unlinkable>.q+64(SP), DI
	0x06b6 01718 (<autogenerated>:1)	LEAQ	(DI)(DX*1), BX
	0x06ba 01722 (<autogenerated>:1)	LEAQ	72(BX), BX
	0x06be 01726 (<autogenerated>:1)	MOVL	$22500, CX
	0x06c3 01731 (<autogenerated>:1)	CALL	runtime.memequal(SB)
	0x06c8 01736 (<autogenerated>:1)	TESTB	AL, AL
	0x06ca 01738 (<autogenerated>:1)	JEQ	1561
	0x06d0 01744 (<autogenerated>:1)	MOVQ	<unlinkable>..autotmp_33+24(SP), DX
	0x06d5 01749 (<autogenerated>:1)	MOVQ	<unlinkable>.p+56(SP), SI
	0x06da 01754 (<autogenerated>:1)	MOVQ	22616(SI)(DX*1), AX
	0x06e2 01762 (<autogenerated>:1)	MOVQ	<unlinkable>.q+64(SP), DI
	0x06e7 01767 (<autogenerated>:1)	MOVQ	22616(DI)(DX*1), BX
	0x06ef 01775 (<autogenerated>:1)	MOVQ	22624(SI)(DX*1), CX
	0x06f7 01783 (<autogenerated>:1)	CALL	runtime.memequal(SB)
	0x06fc 01788 (<autogenerated>:1)	NOP
	0x0700 01792 (<autogenerated>:1)	TESTB	AL, AL
	0x0702 01794 (<autogenerated>:1)	JNE	1800
	0x0704 01796 (<autogenerated>:1)	XORL	AX, AX
	0x0706 01798 (<autogenerated>:1)	JMP	1899
	0x0708 01800 (<autogenerated>:1)	MOVQ	<unlinkable>..autotmp_33+24(SP), DX
	0x070d 01805 (<autogenerated>:1)	MOVQ	<unlinkable>.q+64(SP), SI
	0x0712 01810 (<autogenerated>:1)	MOVQ	22632(SI)(DX*1), BX
	0x071a 01818 (<autogenerated>:1)	MOVQ	<unlinkable>.p+56(SP), DI
	0x071f 01823 (<autogenerated>:1)	MOVQ	22632(DI)(DX*1), AX
	0x0727 01831 (<autogenerated>:1)	MOVQ	22640(DI)(DX*1), CX
	0x072f 01839 (<autogenerated>:1)	CALL	runtime.memequal(SB)
	0x0734 01844 (<autogenerated>:1)	TESTB	AL, AL
	0x0736 01846 (<autogenerated>:1)	JNE	1852
	0x0738 01848 (<autogenerated>:1)	XORL	AX, AX
	0x073a 01850 (<autogenerated>:1)	JMP	1899
	0x073c 01852 (<autogenerated>:1)	MOVQ	<unlinkable>..autotmp_33+24(SP), DX
	0x0741 01857 (<autogenerated>:1)	MOVQ	<unlinkable>.p+56(SP), SI
	0x0746 01862 (<autogenerated>:1)	LEAQ	(SI)(DX*1), AX
	0x074a 01866 (<autogenerated>:1)	LEAQ	22648(AX), AX
	0x0751 01873 (<autogenerated>:1)	MOVQ	<unlinkable>.q+64(SP), DI
	0x0756 01878 (<autogenerated>:1)	LEAQ	(DI)(DX*1), BX
	0x075a 01882 (<autogenerated>:1)	LEAQ	22648(BX), BX
	0x0761 01889 (<autogenerated>:1)	MOVL	$22500, CX
	0x0766 01894 (<autogenerated>:1)	CALL	runtime.memequal(SB)
	0x076b 01899 (<autogenerated>:1)	TESTB	AL, AL
	0x076d 01901 (<autogenerated>:1)	JNE	1569
	0x0773 01907 (<autogenerated>:1)	JMP	1561
	0x0778 01912 (<autogenerated>:1)	MOVQ	316104(BX), DX
	0x077f 01919 (<autogenerated>:1)	MOVQ	316104(AX), SI
	0x0786 01926 (<autogenerated>:1)	MOVQ	316112(AX), CX
	0x078d 01933 (<autogenerated>:1)	MOVQ	SI, AX
	0x0790 01936 (<autogenerated>:1)	MOVQ	DX, BX
	0x0793 01939 (<autogenerated>:1)	CALL	runtime.memequal(SB)
	0x0798 01944 (<autogenerated>:1)	TESTB	AL, AL
	0x079a 01946 (<autogenerated>:1)	JNE	1957
	0x079c 01948 (<autogenerated>:1)	XORL	AX, AX
	0x079e 01950 (<autogenerated>:1)	NOP
	0x07a0 01952 (<autogenerated>:1)	JMP	1563
	0x07a5 01957 (<autogenerated>:1)	MOVQ	<unlinkable>.q+64(SP), DX
	0x07aa 01962 (<autogenerated>:1)	MOVQ	316120(DX), BX
	0x07b1 01969 (<autogenerated>:1)	MOVQ	<unlinkable>.p+56(SP), SI
	0x07b6 01974 (<autogenerated>:1)	MOVQ	316120(SI), AX
	0x07bd 01981 (<autogenerated>:1)	MOVQ	316128(SI), CX
	0x07c4 01988 (<autogenerated>:1)	CALL	runtime.memequal(SB)
	0x07c9 01993 (<autogenerated>:1)	TESTB	AL, AL
	0x07cb 01995 (<autogenerated>:1)	JNE	2004
	0x07cd 01997 (<autogenerated>:1)	XORL	AX, AX
	0x07cf 01999 (<autogenerated>:1)	JMP	1563
	0x07d4 02004 (<autogenerated>:1)	MOVQ	<unlinkable>.p+56(SP), AX
	0x07d9 02009 (<autogenerated>:1)	ADDQ	$316136, AX
	0x07df 02015 (<autogenerated>:1)	MOVQ	<unlinkable>.q+64(SP), BX
	0x07e4 02020 (<autogenerated>:1)	ADDQ	$316136, BX
	0x07eb 02027 (<autogenerated>:1)	MOVL	$22500, CX
	0x07f0 02032 (<autogenerated>:1)	PCDATA	$1, $1
	0x07f0 02032 (<autogenerated>:1)	CALL	runtime.memequal(SB)
	0x07f5 02037 (<autogenerated>:1)	JMP	1563
	0x07fa 02042 (<autogenerated>:1)	NOP
	0x07fa 02042 (<autogenerated>:1)	PCDATA	$1, $-1
	0x07fa 02042 (<autogenerated>:1)	PCDATA	$0, $-2
	0x07fa 02042 (<autogenerated>:1)	MOVQ	AX, 8(SP)
	0x07ff 02047 (<autogenerated>:1)	MOVQ	BX, 16(SP)
	0x0804 02052 (<autogenerated>:1)	CALL	runtime.morestack_noctxt(SB)
	0x0809 02057 (<autogenerated>:1)	PCDATA	$0, $-1
	0x0809 02057 (<autogenerated>:1)	MOVQ	8(SP), AX
	0x080e 02062 (<autogenerated>:1)	MOVQ	16(SP), BX
	0x0813 02067 (<autogenerated>:1)	JMP	0
	0x0000 49 3b 66 10 0f 86 f0 07 00 00 55 48 89 e5 48 83  I;f.......UH..H.
	0x0010 ec 28 31 c9 eb 0a 48 83 c1 04 66 0f 1f 44 00 00  .(1...H...f..D..
	0x0020 48 83 f9 0c 0f 8d a4 03 00 00 48 69 d1 30 58 00  H.........Hi.0X.
	0x0030 00 48 8b 34 13 48 8b 3c 10 0f 1f 80 00 00 00 00  .H.4.H.<........
	0x0040 48 39 fe 0f 85 d0 05 00 00 48 8b 74 13 08 48 8b  H9.......H.t..H.
	0x0050 7c 10 08 48 39 fe 0f 85 bd 05 00 00 0f b6 74 13  |..H9.........t.
	0x0060 10 0f b6 7c 10 10 40 38 fe 0f 85 aa 05 00 00 0f  ...|..@8........
	0x0070 b6 74 13 11 0f b6 7c 10 11 0f 1f 80 00 00 00 00  .t....|.........
	0x0080 40 38 fe 0f 85 90 05 00 00 48 8b 74 13 18 48 8b  @8.......H.t..H.
	0x0090 7c 10 18 48 39 fe 0f 85 7d 05 00 00 48 8b 74 13  |..H9...}...H.t.
	0x00a0 20 48 8b 7c 10 20 48 39 fe 0f 85 6a 05 00 00 48   H.|. H9...j...H
	0x00b0 8b 74 10 30 48 8b 7c 13 30 0f 1f 80 00 00 00 00  .t.0H.|.0.......
	0x00c0 48 39 fe 0f 85 50 05 00 00 48 8b 74 13 40 48 8b  H9...P...H.t.@H.
	0x00d0 7c 10 40 48 39 fe 0f 85 3d 05 00 00 48 8b b4 1a  |.@H9...=...H...
	0x00e0 30 58 00 00 48 8b bc 02 30 58 00 00 48 39 fe 0f  0X..H...0X..H9..
	0x00f0 85 24 05 00 00 48 8b b4 1a 38 58 00 00 48 8b bc  .$...H...8X..H..
	0x0100 02 38 58 00 00 48 39 fe 0f 85 0b 05 00 00 0f b6  .8X..H9.........
	0x0110 b4 1a 40 58 00 00 0f b6 bc 02 40 58 00 00 66 90  ..@X......@X..f.
	0x0120 40 38 fe 0f 85 f0 04 00 00 0f b6 b4 1a 41 58 00  @8...........AX.
	0x0130 00 0f b6 bc 02 41 58 00 00 0f 1f 80 00 00 00 00  .....AX.........
	0x0140 40 38 fe 0f 85 d0 04 00 00 48 8b b4 1a 48 58 00  @8.......H...HX.
	0x0150 00 48 8b bc 02 48 58 00 00 0f 1f 80 00 00 00 00  .H...HX.........
	0x0160 48 39 fe 0f 85 b0 04 00 00 48 8b b4 1a 50 58 00  H9.......H...PX.
	0x0170 00 48 8b bc 02 50 58 00 00 0f 1f 80 00 00 00 00  .H...PX.........
	0x0180 48 39 fe 0f 85 90 04 00 00 48 8b b4 1a 60 58 00  H9.......H...`X.
	0x0190 00 48 8b bc 10 60 58 00 00 0f 1f 80 00 00 00 00  .H...`X.........
	0x01a0 48 39 fe 0f 85 70 04 00 00 48 8b b4 1a 70 58 00  H9...p...H...pX.
	0x01b0 00 48 8b bc 10 70 58 00 00 0f 1f 80 00 00 00 00  .H...pX.........
	0x01c0 48 39 fe 0f 85 50 04 00 00 48 8b b4 1a 60 b0 00  H9...P...H...`..
	0x01d0 00 48 8b bc 02 60 b0 00 00 0f 1f 80 00 00 00 00  .H...`..........
	0x01e0 48 39 fe 0f 85 30 04 00 00 48 8b b4 1a 68 b0 00  H9...0...H...h..
	0x01f0 00 48 8b bc 02 68 b0 00 00 0f 1f 80 00 00 00 00  .H...h..........
	0x0200 48 39 fe 0f 85 10 04 00 00 0f b6 b4 1a 70 b0 00  H9...........p..
	0x0210 00 0f b6 bc 02 70 b0 00 00 0f 1f 80 00 00 00 00  .....p..........
	0x0220 40 38 fe 0f 85 f0 03 00 00 0f b6 b4 1a 71 b0 00  @8...........q..
	0x0230 00 0f b6 bc 02 71 b0 00 00 0f 1f 80 00 00 00 00  .....q..........
	0x0240 40 38 fe 0f 85 d0 03 00 00 48 8b b4 1a 78 b0 00  @8.......H...x..
	0x0250 00 48 8b bc 02 78 b0 00 00 0f 1f 80 00 00 00 00  .H...x..........
	0x0260 48 39 fe 0f 85 b0 03 00 00 48 8b b4 1a 80 b0 00  H9.......H......
	0x0270 00 48 8b bc 02 80 b0 00 00 0f 1f 80 00 00 00 00  .H..............
	0x0280 48 39 fe 0f 85 90 03 00 00 48 8b b4 1a 90 b0 00  H9.......H......
	0x0290 00 48 8b bc 02 90 b0 00 00 0f 1f 80 00 00 00 00  .H..............
	0x02a0 48 39 fe 0f 85 70 03 00 00 48 8b b4 02 a0 b0 00  H9...p...H......
	0x02b0 00 48 8b bc 1a a0 b0 00 00 0f 1f 80 00 00 00 00  .H..............
	0x02c0 48 39 fe 0f 85 50 03 00 00 48 8b b4 1a 90 08 01  H9...P...H......
	0x02d0 00 48 8b bc 02 90 08 01 00 0f 1f 80 00 00 00 00  .H..............
	0x02e0 48 39 fe 0f 85 30 03 00 00 48 8b b4 1a 98 08 01  H9...0...H......
	0x02f0 00 48 8b bc 02 98 08 01 00 0f 1f 80 00 00 00 00  .H..............
	0x0300 48 39 fe 0f 85 10 03 00 00 0f b6 b4 1a a0 08 01  H9..............
	0x0310 00 0f b6 bc 02 a0 08 01 00 0f 1f 80 00 00 00 00  ................
	0x0320 40 38 fe 0f 85 f0 02 00 00 0f b6 b4 1a a1 08 01  @8..............
	0x0330 00 0f b6 bc 02 a1 08 01 00 0f 1f 80 00 00 00 00  ................
	0x0340 40 38 fe 0f 85 d0 02 00 00 48 8b b4 1a a8 08 01  @8.......H......
	0x0350 00 48 8b bc 02 a8 08 01 00 0f 1f 80 00 00 00 00  .H..............
	0x0360 48 39 fe 0f 85 b0 02 00 00 48 8b b4 1a b0 08 01  H9.......H......
	0x0370 00 48 8b bc 02 b0 08 01 00 0f 1f 80 00 00 00 00  .H..............
	0x0380 48 39 fe 0f 85 90 02 00 00 48 8b b4 1a c0 08 01  H9.......H......
	0x0390 00 48 8b bc 02 c0 08 01 00 0f 1f 80 00 00 00 00  .H..............
	0x03a0 48 39 fe 0f 85 70 02 00 00 48 8b b4 02 d0 08 01  H9...p...H......
	0x03b0 00 48 8b 94 1a d0 08 01 00 0f 1f 80 00 00 00 00  .H..............
	0x03c0 48 39 d6 0f 84 4d fc ff ff e9 4b 02 00 00 48 8b  H9...M....K...H.
	0x03d0 90 40 22 04 00 66 0f 1f 84 00 00 00 00 00 66 90  .@"..f........f.
	0x03e0 48 39 93 40 22 04 00 0f 85 2c 02 00 00 48 8b 90  H9.@"....,...H..
	0x03f0 48 22 04 00 66 0f 1f 84 00 00 00 00 00 0f 1f 00  H"..f...........
	0x0400 48 39 93 48 22 04 00 0f 85 0c 02 00 00 0f b6 90  H9.H"...........
	0x0410 50 22 04 00 66 0f 1f 84 00 00 00 00 00 0f 1f 00  P"..f...........
	0x0420 38 93 50 22 04 00 0f 85 ed 01 00 00 0f b6 90 51  8.P"...........Q
	0x0430 22 04 00 38 93 51 22 04 00 0f 85 da 01 00 00 48  "..8.Q"........H
	0x0440 8b 90 58 22 04 00 48 39 93 58 22 04 00 0f 85 c6  ..X"..H9.X".....
	0x0450 01 00 00 48 8b 90 60 22 04 00 66 0f 1f 44 00 00  ...H..`"..f..D..
	0x0460 48 39 93 60 22 04 00 0f 85 ac 01 00 00 48 8b 90  H9.`"........H..
	0x0470 70 22 04 00 66 0f 1f 84 00 00 00 00 00 0f 1f 00  p"..f...........
	0x0480 48 39 93 70 22 04 00 0f 85 8c 01 00 00 48 8b 90  H9.p"........H..
	0x0490 80 22 04 00 66 0f 1f 84 00 00 00 00 00 0f 1f 00  ."..f...........
	0x04a0 48 39 93 80 22 04 00 0f 85 6c 01 00 00 48 8b 90  H9.."....l...H..
	0x04b0 70 7a 04 00 66 0f 1f 84 00 00 00 00 00 0f 1f 00  pz..f...........
	0x04c0 48 39 93 70 7a 04 00 0f 85 4c 01 00 00 48 8b 90  H9.pz....L...H..
	0x04d0 78 7a 04 00 66 0f 1f 84 00 00 00 00 00 0f 1f 00  xz..f...........
	0x04e0 48 39 93 78 7a 04 00 0f 85 2c 01 00 00 0f b6 90  H9.xz....,......
	0x04f0 80 7a 04 00 66 0f 1f 84 00 00 00 00 00 0f 1f 00  .z..f...........
	0x0500 38 93 80 7a 04 00 0f 85 0d 01 00 00 0f b6 90 81  8..z............
	0x0510 7a 04 00 38 93 81 7a 04 00 0f 85 fa 00 00 00 48  z..8..z........H
	0x0520 8b 90 88 7a 04 00 48 39 93 88 7a 04 00 0f 85 e6  ...z..H9..z.....
	0x0530 00 00 00 48 8b 90 90 7a 04 00 66 0f 1f 44 00 00  ...H...z..f..D..
	0x0540 48 39 93 90 7a 04 00 0f 85 cc 00 00 00 48 8b 90  H9..z........H..
	0x0550 a0 7a 04 00 66 0f 1f 84 00 00 00 00 00 0f 1f 00  .z..f...........
	0x0560 48 39 93 a0 7a 04 00 0f 85 ac 00 00 00 48 8b 90  H9..z........H..
	0x0570 b0 7a 04 00 66 0f 1f 84 00 00 00 00 00 0f 1f 00  .z..f...........
	0x0580 48 39 93 b0 7a 04 00 0f 85 8c 00 00 00 48 8b 90  H9..z........H..
	0x0590 a0 d2 04 00 48 39 93 a0 d2 04 00 75 7c 48 8b 90  ....H9.....u|H..
	0x05a0 a8 d2 04 00 48 39 93 a8 d2 04 00 75 6c 0f b6 90  ....H9.....ul...
	0x05b0 b0 d2 04 00 38 93 b0 d2 04 00 75 5d 0f b6 90 b1  ....8.....u]....
	0x05c0 d2 04 00 38 93 b1 d2 04 00 75 4e 48 8b 90 b8 d2  ...8.....uNH....
	0x05d0 04 00 48 39 93 b8 d2 04 00 75 3e 48 8b 90 c0 d2  ..H9.....u>H....
	0x05e0 04 00 48 39 93 c0 d2 04 00 75 2e 48 8b 90 d0 d2  ..H9.....u.H....
	0x05f0 04 00 48 39 93 d0 d2 04 00 75 1e 48 8b 90 e0 d2  ..H9.....u.H....
	0x0600 04 00 48 39 93 e0 d2 04 00 75 0e 48 89 44 24 38  ..H9.....u.H.D$8
	0x0610 48 89 5c 24 40 31 c9 eb 1b 31 c0 48 83 c4 28 5d  H.\$@1...1.H..(]
	0x0620 c3 48 8b 4c 24 20 48 83 c1 02 48 8b 44 24 38 48  .H.L$ H...H.D$8H
	0x0630 8b 5c 24 40 48 83 f9 0e 0f 8d 3a 01 00 00 48 89  .\$@H.....:...H.
	0x0640 4c 24 20 48 69 d1 30 58 00 00 48 89 54 24 18 48  L$ Hi.0X..H.T$.H
	0x0650 8b 74 13 28 48 8b 7c 10 28 4c 8b 44 10 30 48 89  .t.(H.|.(L.D.0H.
	0x0660 f8 48 89 f3 4c 89 c1 e8 00 00 00 00 84 c0 75 04  .H..L.........u.
	0x0670 31 c0 eb 54 48 8b 54 24 18 48 8b 74 24 38 48 8b  1..TH.T$.H.t$8H.
	0x0680 44 16 38 48 8b 7c 24 40 48 8b 5c 17 38 48 8b 4c  D.8H.|$@H.\.8H.L
	0x0690 16 40 e8 00 00 00 00 84 c0 75 04 31 c0 eb 29 48  .@.......u.1..)H
	0x06a0 8b 54 24 18 48 8b 74 24 38 48 8d 04 16 48 8d 40  .T$.H.t$8H...H.@
	0x06b0 48 48 8b 7c 24 40 48 8d 1c 17 48 8d 5b 48 b9 e4  HH.|$@H...H.[H..
	0x06c0 57 00 00 e8 00 00 00 00 84 c0 0f 84 49 ff ff ff  W...........I...
	0x06d0 48 8b 54 24 18 48 8b 74 24 38 48 8b 84 16 58 58  H.T$.H.t$8H...XX
	0x06e0 00 00 48 8b 7c 24 40 48 8b 9c 17 58 58 00 00 48  ..H.|$@H...XX..H
	0x06f0 8b 8c 16 60 58 00 00 e8 00 00 00 00 0f 1f 40 00  ...`X.........@.
	0x0700 84 c0 75 04 31 c0 eb 63 48 8b 54 24 18 48 8b 74  ..u.1..cH.T$.H.t
	0x0710 24 40 48 8b 9c 16 68 58 00 00 48 8b 7c 24 38 48  $@H...hX..H.|$8H
	0x0720 8b 84 17 68 58 00 00 48 8b 8c 17 70 58 00 00 e8  ...hX..H...pX...
	0x0730 00 00 00 00 84 c0 75 04 31 c0 eb 2f 48 8b 54 24  ......u.1../H.T$
	0x0740 18 48 8b 74 24 38 48 8d 04 16 48 8d 80 78 58 00  .H.t$8H...H..xX.
	0x0750 00 48 8b 7c 24 40 48 8d 1c 17 48 8d 9b 78 58 00  .H.|$@H...H..xX.
	0x0760 00 b9 e4 57 00 00 e8 00 00 00 00 84 c0 0f 85 ae  ...W............
	0x0770 fe ff ff e9 a1 fe ff ff 48 8b 93 c8 d2 04 00 48  ........H......H
	0x0780 8b b0 c8 d2 04 00 48 8b 88 d0 d2 04 00 48 89 f0  ......H......H..
	0x0790 48 89 d3 e8 00 00 00 00 84 c0 75 09 31 c0 66 90  H.........u.1.f.
	0x07a0 e9 76 fe ff ff 48 8b 54 24 40 48 8b 9a d8 d2 04  .v...H.T$@H.....
	0x07b0 00 48 8b 74 24 38 48 8b 86 d8 d2 04 00 48 8b 8e  .H.t$8H......H..
	0x07c0 e0 d2 04 00 e8 00 00 00 00 84 c0 75 07 31 c0 e9  ...........u.1..
	0x07d0 47 fe ff ff 48 8b 44 24 38 48 05 e8 d2 04 00 48  G...H.D$8H.....H
	0x07e0 8b 5c 24 40 48 81 c3 e8 d2 04 00 b9 e4 57 00 00  .\$@H........W..
	0x07f0 e8 00 00 00 00 e9 21 fe ff ff 48 89 44 24 08 48  ......!...H.D$.H
	0x0800 89 5c 24 10 e8 00 00 00 00 48 8b 44 24 08 48 8b  .\$......H.D$.H.
	0x0810 5c 24 10 e9 e8 f7 ff ff                          \$......
	rel 1640+4 t=R_CALL runtime.memequal+0
	rel 1683+4 t=R_CALL runtime.memequal+0
	rel 1732+4 t=R_CALL runtime.memequal+0
	rel 1784+4 t=R_CALL runtime.memequal+0
	rel 1840+4 t=R_CALL runtime.memequal+0
	rel 1895+4 t=R_CALL runtime.memequal+0
	rel 1940+4 t=R_CALL runtime.memequal+0
	rel 1989+4 t=R_CALL runtime.memequal+0
	rel 2033+4 t=R_CALL runtime.memequal+0
	rel 2053+4 t=R_CALL runtime.morestack_noctxt+0
type:.eq.<unlinkable>.SWAInventory STEXT dupok size=201 args=0x10 locals=0x20 funcid=0x0 align=0x0
	0x0000 00000 (<autogenerated>:1)	TEXT	type:.eq.<unlinkable>.SWAInventory(SB), DUPOK|ABIInternal, $32-16
	0x0000 00000 (<autogenerated>:1)	CMPQ	SP, 16(R14)
	0x0004 00004 (<autogenerated>:1)	PCDATA	$0, $-2
	0x0004 00004 (<autogenerated>:1)	JLS	171
	0x000a 00010 (<autogenerated>:1)	PCDATA	$0, $-1
	0x000a 00010 (<autogenerated>:1)	PUSHQ	BP
	0x000b 00011 (<autogenerated>:1)	MOVQ	SP, BP
	0x000e 00014 (<autogenerated>:1)	SUBQ	$24, SP
	0x0012 00018 (<autogenerated>:1)	FUNCDATA	$0, gclocals·TjPuuCwdlCpTaRQGRKTrYw==(SB)
	0x0012 00018 (<autogenerated>:1)	FUNCDATA	$1, gclocals·J5F+7Qw7O7ve2QcWC7DpeQ==(SB)
	0x0012 00018 (<autogenerated>:1)	FUNCDATA	$5, type:.eq.<unlinkable>.SWAInventory.arginfo1(SB)
	0x0012 00018 (<autogenerated>:1)	FUNCDATA	$6, type:.eq.<unlinkable>.SWAInventory.argliveinfo(SB)
	0x0012 00018 (<autogenerated>:1)	PCDATA	$3, $1
	0x0012 00018 (<autogenerated>:1)	MOVQ	AX, <unlinkable>.p+40(SP)
	0x0017 00023 (<autogenerated>:1)	MOVQ	BX, <unlinkable>.q+48(SP)
	0x001c 00028 (<autogenerated>:1)	PCDATA	$3, $-1
	0x001c 00028 (<autogenerated>:1)	LEAQ	512(AX), CX
	0x0023 00035 (<autogenerated>:1)	LEAQ	512(BX), DX
	0x002a 00042 (<autogenerated>:1)	MOVQ	CX, AX
	0x002d 00045 (<autogenerated>:1)	MOVQ	DX, BX
	0x0030 00048 (<autogenerated>:1)	PCDATA	$1, $0
	0x0030 00048 (<autogenerated>:1)	CALL	type:.eq.[15]string(SB)
	0x0035 00053 (<autogenerated>:1)	TESTB	AL, AL
	0x0037 00055 (<autogenerated>:1)	JEQ	124
	0x0039 00057 (<autogenerated>:1)	MOVQ	<unlinkable>.p+40(SP), AX
	0x003e 00062 (<autogenerated>:1)	LEAQ	752(AX), CX
	0x0045 00069 (<autogenerated>:1)	MOVQ	<unlinkable>.q+48(SP), BX
	0x004a 00074 (<autogenerated>:1)	LEAQ	752(BX), DX
	0x0051 00081 (<autogenerated>:1)	MOVQ	CX, AX
	0x0054 00084 (<autogenerated>:1)	MOVQ	DX, BX
	0x0057 00087 (<autogenerated>:1)	CALL	type:.eq.[15]string(SB)
	0x005c 00092 (<autogenerated>:1)	NOP
	0x0060 00096 (<autogenerated>:1)	TESTB	AL, AL
	0x0062 00098 (<autogenerated>:1)	JEQ	124
	0x0064 00100 (<autogenerated>:1)	MOVQ	<unlinkable>.p+40(SP), AX
	0x0069 00105 (<autogenerated>:1)	MOVQ	<unlinkable>.q+48(SP), BX
	0x006e 00110 (<autogenerated>:1)	MOVL	$510, CX
	0x0073 00115 (<autogenerated>:1)	CALL	runtime.memequal(SB)
	0x0078 00120 (<autogenerated>:1)	TESTB	AL, AL
	0x007a 00122 (<autogenerated>:1)	JNE	130
	0x007c 00124 (<autogenerated>:1)	XORL	AX, AX
	0x007e 00126 (<autogenerated>:1)	NOP
	0x0080 00128 (<autogenerated>:1)	JMP	165
	0x0082 00130 (<autogenerated>:1)	MOVQ	<unlinkable>.p+40(SP), AX
	0x0087 00135 (<autogenerated>:1)	ADDQ	$992, AX
	0x008d 00141 (<autogenerated>:1)	MOVQ	<unlinkable>.q+48(SP), BX
	0x0092 00146 (<autogenerated>:1)	ADDQ	$992, BX
	0x0099 00153 (<autogenerated>:1)	MOVL	$337500, CX
	0x009e 00158 (<autogenerated>:1)	PCDATA	$1, $1
	0x009e 00158 (<autogenerated>:1)	NOP
	0x00a0 00160 (<autogenerated>:1)	CALL	runtime.memequal(SB)
	0x00a5 00165 (<autogenerated>:1)	ADDQ	$24, SP
	0x00a9 00169 (<autogenerated>:1)	POPQ	BP
	0x00aa 00170 (<autogenerated>:1)	RET
	0x00ab 00171 (<autogenerated>:1)	NOP
	0x00ab 00171 (<autogenerated>:1)	PCDATA	$1, $-1
	0x00ab 00171 (<autogenerated>:1)	PCDATA	$0, $-2
	0x00ab 00171 (<autogenerated>:1)	MOVQ	AX, 8(SP)
	0x00b0 00176 (<autogenerated>:1)	MOVQ	BX, 16(SP)
	0x00b5 00181 (<autogenerated>:1)	CALL	runtime.morestack_noctxt(SB)
	0x00ba 00186 (<autogenerated>:1)	PCDATA	$0, $-1
	0x00ba 00186 (<autogenerated>:1)	MOVQ	8(SP), AX
	0x00bf 00191 (<autogenerated>:1)	MOVQ	16(SP), BX
	0x00c4 00196 (<autogenerated>:1)	JMP	0
	0x0000 49 3b 66 10 0f 86 a1 00 00 00 55 48 89 e5 48 83  I;f.......UH..H.
	0x0010 ec 18 48 89 44 24 28 48 89 5c 24 30 48 8d 88 00  ..H.D$(H.\$0H...
	0x0020 02 00 00 48 8d 93 00 02 00 00 48 89 c8 48 89 d3  ...H......H..H..
	0x0030 e8 00 00 00 00 84 c0 74 43 48 8b 44 24 28 48 8d  .......tCH.D$(H.
	0x0040 88 f0 02 00 00 48 8b 5c 24 30 48 8d 93 f0 02 00  .....H.\$0H.....
	0x0050 00 48 89 c8 48 89 d3 e8 00 00 00 00 0f 1f 40 00  .H..H.........@.
	0x0060 84 c0 74 18 48 8b 44 24 28 48 8b 5c 24 30 b9 fe  ..t.H.D$(H.\$0..
	0x0070 01 00 00 e8 00 00 00 00 84 c0 75 06 31 c0 66 90  ..........u.1.f.
	0x0080 eb 23 48 8b 44 24 28 48 05 e0 03 00 00 48 8b 5c  .#H.D$(H.....H.\
	0x0090 24 30 48 81 c3 e0 03 00 00 b9 5c 26 05 00 66 90  $0H.......\&..f.
	0x00a0 e8 00 00 00 00 48 83 c4 18 5d c3 48 89 44 24 08  .....H...].H.D$.
	0x00b0 48 89 5c 24 10 e8 00 00 00 00 48 8b 44 24 08 48  H.\$......H.D$.H
	0x00c0 8b 5c 24 10 e9 37 ff ff ff                       .\$..7...
	rel 49+4 t=R_CALL type:.eq.[15]string+0
	rel 88+4 t=R_CALL type:.eq.[15]string+0
	rel 116+4 t=R_CALL runtime.memequal+0
	rel 161+4 t=R_CALL runtime.memequal+0
	rel 182+4 t=R_CALL runtime.morestack_noctxt+0
type:.eq.[15]string STEXT dupok size=229 args=0x10 locals=0x28 funcid=0x0 align=0x0
	0x0000 00000 (<autogenerated>:1)	TEXT	type:.eq.[15]string(SB), DUPOK|ABIInternal, $40-16
	0x0000 00000 (<autogenerated>:1)	CMPQ	SP, 16(R14)
	0x0004 00004 (<autogenerated>:1)	PCDATA	$0, $-2
	0x0004 00004 (<autogenerated>:1)	JLS	198
	0x000a 00010 (<autogenerated>:1)	PCDATA	$0, $-1
	0x000a 00010 (<autogenerated>:1)	PUSHQ	BP
	0x000b 00011 (<autogenerated>:1)	MOVQ	SP, BP
	0x000e 00014 (<autogenerated>:1)	SUBQ	$32, SP
	0x0012 00018 (<autogenerated>:1)	FUNCDATA	$0, gclocals·TjPuuCwdlCpTaRQGRKTrYw==(SB)
	0x0012 00018 (<autogenerated>:1)	FUNCDATA	$1, gclocals·J5F+7Qw7O7ve2QcWC7DpeQ==(SB)
	0x0012 00018 (<autogenerated>:1)	FUNCDATA	$5, type:.eq.[15]string.arginfo1(SB)
	0x0012 00018 (<autogenerated>:1)	FUNCDATA	$6, type:.eq.[15]string.argliveinfo(SB)
	0x0012 00018 (<autogenerated>:1)	PCDATA	$3, $1
	0x0012 00018 (<autogenerated>:1)	XORL	CX, CX
	0x0014 00020 (<autogenerated>:1)	JMP	32
	0x0016 00022 (<autogenerated>:1)	LEAQ	3(DX), CX
	0x001a 00026 (<autogenerated>:1)	NOP
	0x0020 00032 (<autogenerated>:1)	CMPQ	CX, $15
	0x0024 00036 (<autogenerated>:1)	JGE	108
	0x0026 00038 (<autogenerated>:1)	MOVQ	CX, DX
	0x0029 00041 (<autogenerated>:1)	SHLQ	$4, CX
	0x002d 00045 (<autogenerated>:1)	MOVQ	8(AX)(CX*1), SI
	0x0032 00050 (<autogenerated>:1)	MOVQ	8(BX)(CX*1), DI
	0x0037 00055 (<autogenerated>:1)	CMPQ	SI, DI
	0x003a 00058 (<autogenerated>:1)	JNE	183
	0x003c 00060 (<autogenerated>:1)	LEAQ	1(DX), SI
	0x0040 00064 (<autogenerated>:1)	SHLQ	$4, SI
	0x0044 00068 (<autogenerated>:1)	MOVQ	8(SI)(BX*1), DI
	0x0049 00073 (<autogenerated>:1)	MOVQ	8(SI)(AX*1), SI
	0x004e 00078 (<autogenerated>:1)	CMPQ	DI, SI
	0x0051 00081 (<autogenerated>:1)	JNE	183
	0x0053 00083 (<autogenerated>:1)	LEAQ	2(DX), SI
	0x0057 00087 (<autogenerated>:1)	SHLQ	$4, SI
	0x005b 00091 (<autogenerated>:1)	MOVQ	8(SI)(BX*1), DI
	0x0060 00096 (<autogenerated>:1)	MOVQ	8(SI)(AX*1), SI
	0x0065 00101 (<autogenerated>:1)	CMPQ	DI, SI
	0x0068 00104 (<autogenerated>:1)	JEQ	22
	0x006a 00106 (<autogenerated>:1)	JMP	183
	0x006c 00108 (<autogenerated>:1)	MOVQ	AX, <unlinkable>.p+48(SP)
	0x0071 00113 (<autogenerated>:1)	MOVQ	BX, <unlinkable>.q+56(SP)
	0x0076 00118 (<autogenerated>:1)	PCDATA	$3, $-1
	0x0076 00118 (<autogenerated>:1)	XORL	CX, CX
	0x0078 00120 (<autogenerated>:1)	JMP	140
	0x007a 00122 (<autogenerated>:1)	MOVQ	<unlinkable>..autotmp_10+24(SP), CX
	0x007f 00127 (<autogenerated>:1)	INCQ	CX
	0x0082 00130 (<autogenerated>:1)	MOVQ	<unlinkable>.p+48(SP), AX
	0x0087 00135 (<autogenerated>:1)	MOVQ	<unlinkable>.q+56(SP), BX
	0x008c 00140 (<autogenerated>:1)	CMPQ	CX, $15
	0x0090 00144 (<autogenerated>:1)	JGE	187
	0x0092 00146 (<autogenerated>:1)	MOVQ	CX, <unlinkable>..autotmp_10+24(SP)
	0x0097 00151 (<autogenerated>:1)	SHLQ	$4, CX
	0x009b 00155 (<autogenerated>:1)	MOVQ	(CX)(BX*1), SI
	0x009f 00159 (<autogenerated>:1)	MOVQ	(CX)(AX*1), DI
	0x00a3 00163 (<autogenerated>:1)	MOVQ	8(AX)(CX*1), CX
	0x00a8 00168 (<autogenerated>:1)	MOVQ	DI, AX
	0x00ab 00171 (<autogenerated>:1)	MOVQ	SI, BX
	0x00ae 00174 (<autogenerated>:1)	PCDATA	$1, $0
	0x00ae 00174 (<autogenerated>:1)	CALL	runtime.memequal(SB)
	0x00b3 00179 (<autogenerated>:1)	TESTB	AL, AL
	0x00b5 00181 (<autogenerated>:1)	JNE	122
	0x00b7 00183 (<autogenerated>:1)	PCDATA	$3, $1
	0x00b7 00183 (<autogenerated>:1)	XORL	AX, AX
	0x00b9 00185 (<autogenerated>:1)	JMP	192
	0x00bb 00187 (<autogenerated>:1)	PCDATA	$3, $-1
	0x00bb 00187 (<autogenerated>:1)	MOVL	$1, AX
	0x00c0 00192 (<autogenerated>:1)	PCDATA	$3, $1
	0x00c0 00192 (<autogenerated>:1)	ADDQ	$32, SP
	0x00c4 00196 (<autogenerated>:1)	POPQ	BP
	0x00c5 00197 (<autogenerated>:1)	RET
	0x00c6 00198 (<autogenerated>:1)	NOP
	0x00c6 00198 (<autogenerated>:1)	PCDATA	$1, $-1
	0x00c6 00198 (<autogenerated>:1)	PCDATA	$0, $-2
	0x00c6 00198 (<autogenerated>:1)	MOVQ	AX, 8(SP)
	0x00cb 00203 (<autogenerated>:1)	MOVQ	BX, 16(SP)
	0x00d0 00208 (<autogenerated>:1)	CALL	runtime.morestack_noctxt(SB)
	0x00d5 00213 (<autogenerated>:1)	PCDATA	$0, $-1
	0x00d5 00213 (<autogenerated>:1)	MOVQ	8(SP), AX
	0x00da 00218 (<autogenerated>:1)	MOVQ	16(SP), BX
	0x00df 00223 (<autogenerated>:1)	NOP
	0x00e0 00224 (<autogenerated>:1)	JMP	0
	0x0000 49 3b 66 10 0f 86 bc 00 00 00 55 48 89 e5 48 83  I;f.......UH..H.
	0x0010 ec 20 31 c9 eb 0a 48 8d 4a 03 66 0f 1f 44 00 00  . 1...H.J.f..D..
	0x0020 48 83 f9 0f 7d 46 48 89 ca 48 c1 e1 04 48 8b 74  H...}FH..H...H.t
	0x0030 08 08 48 8b 7c 0b 08 48 39 fe 75 7b 48 8d 72 01  ..H.|..H9.u{H.r.
	0x0040 48 c1 e6 04 48 8b 7c 1e 08 48 8b 74 06 08 48 39  H...H.|..H.t..H9
	0x0050 f7 75 64 48 8d 72 02 48 c1 e6 04 48 8b 7c 1e 08  .udH.r.H...H.|..
	0x0060 48 8b 74 06 08 48 39 f7 74 ac eb 4b 48 89 44 24  H.t..H9.t..KH.D$
	0x0070 30 48 89 5c 24 38 31 c9 eb 12 48 8b 4c 24 18 48  0H.\$81...H.L$.H
	0x0080 ff c1 48 8b 44 24 30 48 8b 5c 24 38 48 83 f9 0f  ..H.D$0H.\$8H...
	0x0090 7d 29 48 89 4c 24 18 48 c1 e1 04 48 8b 34 19 48  })H.L$.H...H.4.H
	0x00a0 8b 3c 01 48 8b 4c 08 08 48 89 f8 48 89 f3 e8 00  .<.H.L..H..H....
	0x00b0 00 00 00 84 c0 75 c3 31 c0 eb 05 b8 01 00 00 00  .....u.1........
	0x00c0 48 83 c4 20 5d c3 48 89 44 24 08 48 89 5c 24 10  H.. ].H.D$.H.\$.
	0x00d0 e8 00 00 00 00 48 8b 44 24 08 48 8b 5c 24 10 90  .....H.D$.H.\$..
	0x00e0 e9 1b ff ff ff                                   .....
	rel 175+4 t=R_CALL runtime.memequal+0
	rel 209+4 t=R_CALL runtime.morestack_noctxt+0
go:cuinfo.producer.<unlinkable> SDWARFCUINFO dupok size=0
	0x0000 72 65 67 61 62 69                                regabi
go:cuinfo.packagename.<unlinkable> SDWARFCUINFO dupok size=0
	0x0000 69 6e 76 65 6e 74 6f 72 79 5f 62 65 6e 63 68 6d  inventory_benchm
	0x0010 61 72 6b                                         ark
go:info.<unlinkable>.(*OOPItem).TotalWeight$abstract SDWARFABSFCN dupok size=49
	0x0000 05 3c 75 6e 6c 69 6e 6b 61 62 6c 65 3e 2e 28 2a  .<unlinkable>.(*
	0x0010 4f 4f 50 49 74 65 6d 29 2e 54 6f 74 61 6c 57 65  OOPItem).TotalWe
	0x0020 69 67 68 74 00 01 28 01 13 69 00 00 00 00 00 00  ight..(..i......
	0x0030 00                                               .
	rel 44+4 t=R_DWARFSECREF go:info.*<unlinkable>.OOPItem+0
type:.eqfunc.<unlinkable>.AOSItem SRODATA dupok size=8
	0x0000 00 00 00 00 00 00 00 00                          ........
	rel 0+8 t=R_ADDR type:.eq.<unlinkable>.AOSItem+0
runtime.memequal64·f SRODATA dupok size=8
	0x0000 00 00 00 00 00 00 00 00                          ........
	rel 0+8 t=R_ADDR runtime.memequal64+0
runtime.gcbits.0100000000000000 SRODATA dupok size=8
	0x0000 01 00 00 00 00 00 00 00                          ........
type:.namedata.*inventory_benchmark.AOSItem. SRODATA dupok size=30
	0x0000 01 1c 2a 69 6e 76 65 6e 74 6f 72 79 5f 62 65 6e  ..*inventory_ben
	0x0010 63 68 6d 61 72 6b 2e 41 4f 53 49 74 65 6d        chmark.AOSItem
type:*<unlinkable>.AOSItem SRODATA size=56
	0x0000 08 00 00 00 00 00 00 00 08 00 00 00 00 00 00 00  ................
	0x0010 c8 01 9a 11 08 08 08 36 00 00 00 00 00 00 00 00  .......6........
	0x0020 00 00 00 00 00 00 00 00 00 00 00 00 00 00 00 00  ................
	0x0030 00 00 00 00 00 00 00 00                          ........
	rel 24+8 t=R_ADDR runtime.memequal64·f+0
	rel 32+8 t=R_ADDR runtime.gcbits.0100000000000000+0
	rel 40+4 t=R_ADDROFF type:.namedata.*inventory_benchmark.AOSItem.+0
	rel 48+8 t=R_ADDR type:<unlinkable>.AOSItem+0
runtime.gcbits.a000000000000000 SRODATA dupok size=8
	0x0000 a0 00 00 00 00 00 00 00                          ........
type:.namedata.*inventory_benchmark.material- SRODATA dupok size=31
	0x0000 00 1d 2a 69 6e 76 65 6e 74 6f 72 79 5f 62 65 6e  ..*inventory_ben
	0x0010 63 68 6d 61 72 6b 2e 6d 61 74 65 72 69 61 6c     chmark.material
type:*<unlinkable>.material SRODATA size=56
	0x0000 08 00 00 00 00 00 00 00 08 00 00 00 00 00 00 00  ................
	0x0010 64 00 1c e9 08 08 08 36 00 00 00 00 00 00 00 00  d......6........
	0x0020 00 00 00 00 00 00 00 00 00 00 00 00 00 00 00 00  ................
	0x0030 00 00 00 00 00 00 00 00                          ........
	rel 24+8 t=R_ADDR runtime.memequal64·f+0
	rel 32+8 t=R_ADDR runtime.gcbits.0100000000000000+0
	rel 40+4 t=R_ADDROFF type:.namedata.*inventory_benchmark.material-+0
	rel 48+8 t=R_ADDR type:<unlinkable>.material+0
runtime.gcbits. SRODATA dupok size=0
type:.importpath.<unlinkable>. SRODATA dupok size=14
	0x0000 00 0c 3c 75 6e 6c 69 6e 6b 61 62 6c 65 3e        ..<unlinkable>
type:<unlinkable>.material SRODATA size=64
	0x0000 08 00 00 00 00 00 00 00 00 00 00 00 00 00 00 00  ................
	0x0010 46 9f d3 da 0f 08 08 07 00 00 00 00 00 00 00 00  F...............
	0x0020 00 00 00 00 00 00 00 00 00 00 00 00 00 00 00 00  ................
	0x0030 00 00 00 00 00 00 00 00 10 00 00 00              ............
	rel 24+8 t=R_ADDR runtime.memequal64·f+0
	rel 32+8 t=R_ADDR runtime.gcbits.+0
	rel 40+4 t=R_ADDROFF type:.namedata.*inventory_benchmark.material-+0
	rel 44+4 t=R_ADDROFF type:*<unlinkable>.material+0
	rel 48+4 t=R_ADDROFF type:.importpath.<unlinkable>.+0
type:.eqfunc22500 SRODATA dupok size=16
	0x0000 00 00 00 00 00 00 00 00 e4 57 00 00 00 00 00 00  .........W......
	rel 0+8 t=R_ADDR runtime.memequal_varlen+0
type:.namedata.*[22500]uint8- SRODATA dupok size=15
	0x0000 00 0d 2a 5b 32 32 35 30 30 5d 75 69 6e 74 38     ..*[22500]uint8
type:*[22500]uint8 SRODATA dupok size=56
	0x0000 08 00 00 00 00 00 00 00 08 00 00 00 00 00 00 00  ................
	0x0010 96 45 ed 22 08 08 08 36 00 00 00 00 00 00 00 00  .E."...6........
	0x0020 00 00 00 00 00 00 00 00 00 00 00 00 00 00 00 00  ................
	0x0030 00 00 00 00 00 00 00 00                          ........
	rel 24+8 t=R_ADDR runtime.memequal64·f+0
	rel 32+8 t=R_ADDR runtime.gcbits.0100000000000000+0
	rel 40+4 t=R_ADDROFF type:.namedata.*[22500]uint8-+0
	rel 48+8 t=R_ADDR type:[22500]uint8+0
type:[22500]uint8 SRODATA dupok size=72
	0x0000 e4 57 00 00 00 00 00 00 00 00 00 00 00 00 00 00  .W..............
	0x0010 41 8e 8c 7d 0a 01 01 11 00 00 00 00 00 00 00 00  A..}............
	0x0020 00 00 00 00 00 00 00 00 00 00 00 00 00 00 00 00  ................
	0x0030 00 00 00 00 00 00 00 00 00 00 00 00 00 00 00 00  ................
	0x0040 e4 57 00 00 00 00 00 00                          .W......
	rel 24+8 t=R_ADDR type:.eqfunc22500+0
	rel 32+8 t=R_ADDR runtime.gcbits.+0
	rel 40+4 t=R_ADDROFF type:.namedata.*[22500]uint8-+0
	rel 44+4 t=RelocType(-32763) type:*[22500]uint8+0
	rel 48+8 t=R_ADDR type:uint8+0
	rel 56+8 t=R_ADDR type:[]uint8+0
type:.namedata.Weight. SRODATA dupok size=8
	0x0000 01 06 57 65 69 67 68 74                          ..Weight
type:.namedata.Amount. SRODATA dupok size=8
	0x0000 01 06 41 6d 6f 75 6e 74                          ..Amount
type:.namedata.CanBeUsedInMainHand. SRODATA dupok size=21
	0x0000 01 13 43 61 6e 42 65 55 73 65 64 49 6e 4d 61 69  ..CanBeUsedInMai
	0x0010 6e 48 61 6e 64                                   nHand
type:.namedata.CanBeUsedInOffHand. SRODATA dupok size=20
	0x0000 01 12 43 61 6e 42 65 55 73 65 64 49 6e 4f 66 66  ..CanBeUsedInOff
	0x0010 48 61 6e 64                                      Hand
type:.namedata.Damage. SRODATA dupok size=8
	0x0000 01 06 44 61 6d 61 67 65                          ..Damage
type:.namedata.Material. SRODATA dupok size=10
	0x0000 01 08 4d 61 74 65 72 69 61 6c                    ..Material
type:.namedata.Name. SRODATA dupok size=6
	0x0000 01 04 4e 61 6d 65                                ..Name
type:.namedata.Description. SRODATA dupok size=13
	0x0000 01 0b 44 65 73 63 72 69 70 74 69 6f 6e           ..Description
type:.namedata.Texture. SRODATA dupok size=9
	0x0000 01 07 54 65 78 74 75 72 65                       ..Texture
type:<unlinkable>.AOSItem SRODATA size=312
	0x0000 30 58 00 00 00 00 00 00 40 00 00 00 00 00 00 00  0X......@.......
	0x0010 7a 40 23 62 07 08 08 19 00 00 00 00 00 00 00 00  z@#b............
	0x0020 00 00 00 00 00 00 00 00 00 00 00 00 00 00 00 00  ................
	0x0030 00 00 00 00 00 00 00 00 00 00 00 00 00 00 00 00  ................
	0x0040 09 00 00 00 00 00 00 00 09 00 00 00 00 00 00 00  ................
	0x0050 00 00 00 00 00 00 00 00 e8 00 00 00 00 00 00 00  ................
	0x0060 00 00 00 00 00 00 00 00 00 00 00 00 00 00 00 00  ................
	0x0070 00 00 00 00 00 00 00 00 00 00 00 00 00 00 00 00  ................
	0x0080 00 00 00 00 00 00 00 00 08 00 00 00 00 00 00 00  ................
	0x0090 00 00 00 00 00 00 00 00 00 00 00 00 00 00 00 00  ................
	0x00a0 10 00 00 00 00 00 00 00 00 00 00 00 00 00 00 00  ................
	0x00b0 00 00 00 00 00 00 00 00 11 00 00 00 00 00 00 00  ................
	0x00c0 00 00 00 00 00 00 00 00 00 00 00 00 00 00 00 00  ................
	0x00d0 18 00 00 00 00 00 00 00 00 00 00 00 00 00 00 00  ................
	0x00e0 00 00 00 00 00 00 00 00 20 00 00 00 00 00 00 00  ........ .......
	0x00f0 00 00 00 00 00 00 00 00 00 00 00 00 00 00 00 00  ................
	0x0100 28 00 00 00 00 00 00 00 00 00 00 00 00 00 00 00  (...............
	0x0110 00 00 00 00 00 00 00 00 38 00 00 00 00 00 00 00  ........8.......
	0x0120 00 00 00 00 00 00 00 00 00 00 00 00 00 00 00 00  ................
	0x0130 48 00 00 00 00 00 00 00                          H.......
	rel 24+8 t=R_ADDR type:.eqfunc.<unlinkable>.AOSItem+0
	rel 32+8 t=R_ADDR runtime.gcbits.a000000000000000+0
	rel 40+4 t=R_ADDROFF type:.namedata.*inventory_benchmark.AOSItem.+0
	rel 44+4 t=R_ADDROFF type:*<unlinkable>.AOSItem+0
	rel 56+8 t=R_ADDR type:<unlinkable>.AOSItem+96
	rel 80+4 t=R_ADDROFF type:.importpath.<unlinkable>.+0
	rel 96+8 t=R_ADDR type:.namedata.Weight.+0
	rel 104+8 t=R_ADDR type:int+0
	rel 120+8 t=R_ADDR type:.namedata.Amount.+0
	rel 128+8 t=R_ADDR type:int+0
	rel 144+8 t=R_ADDR type:.namedata.CanBeUsedInMainHand.+0
	rel 152+8 t=R_ADDR type:bool+0
	rel 168+8 t=R_ADDR type:.namedata.CanBeUsedInOffHand.+0
	rel 176+8 t=R_ADDR type:bool+0
	rel 192+8 t=R_ADDR type:.namedata.Damage.+0
	rel 200+8 t=R_ADDR type:int+0
	rel 216+8 t=R_ADDR type:.namedata.Material.+0
	rel 224+8 t=R_ADDR type:<unlinkable>.material+0
	rel 240+8 t=R_ADDR type:.namedata.Name.+0
	rel 248+8 t=R_ADDR type:string+0
	rel 264+8 t=R_ADDR type:.namedata.Description.+0
	rel 272+8 t=R_ADDR type:string+0
	rel 288+8 t=R_ADDR type:.namedata.Texture.+0
	rel 296+8 t=R_ADDR type:[22500]uint8+0
type:.eqfunc.<unlinkable>.OOPItem SRODATA dupok size=8
	0x0000 00 00 00 00 00 00 00 00                          ........
	rel 0+8 t=R_ADDR type:.eq.<unlinkable>.OOPItem+0
type:.namedata.*inventory_benchmark.OOPItem. SRODATA dupok size=30
	0x0000 01 1c 2a 69 6e 76 65 6e 74 6f 72 79 5f 62 65 6e  ..*inventory_ben
	0x0010 63 68 6d 61 72 6b 2e 4f 4f 50 49 74 65 6d        chmark.OOPItem
type:.namedata.*func(*inventory_benchmark.OOPItem) int- SRODATA dupok size=41
	0x0000 00 27 2a 66 75 6e 63 28 2a 69 6e 76 65 6e 74 6f  .'*func(*invento
	0x0010 72 79 5f 62 65 6e 63 68 6d 61 72 6b 2e 4f 4f 50  ry_benchmark.OOP
	0x0020 49 74 65 6d 29 20 69 6e 74                       Item) int
type:*func(*<unlinkable>.OOPItem) int SRODATA dupok size=56
	0x0000 08 00 00 00 00 00 00 00 08 00 00 00 00 00 00 00  ................
	0x0010 c9 86 cc cb 08 08 08 36 00 00 00 00 00 00 00 00  .......6........
	0x0020 00 00 00 00 00 00 00 00 00 00 00 00 00 00 00 00  ................
	0x0030 00 00 00 00 00 00 00 00                          ........
	rel 24+8 t=R_ADDR runtime.memequal64·f+0
	rel 32+8 t=R_ADDR runtime.gcbits.0100000000000000+0
	rel 40+4 t=R_ADDROFF type:.namedata.*func(*inventory_benchmark.OOPItem) int-+0
	rel 48+8 t=R_ADDR type:func(*<unlinkable>.OOPItem) int+0
type:func(*<unlinkable>.OOPItem) int SRODATA dupok size=72
	0x0000 08 00 00 00 00 00 00 00 08 00 00 00 00 00 00 00  ................
	0x0010 6b 7d 33 f5 02 08 08 33 00 00 00 00 00 00 00 00  k}3....3........
	0x0020 00 00 00 00 00 00 00 00 00 00 00 00 00 00 00 00  ................
	0x0030 01 00 01 00 00 00 00 00 00 00 00 00 00 00 00 00  ................
	0x0040 00 00 00 00 00 00 00 00                          ........
	rel 32+8 t=R_ADDR runtime.gcbits.0100000000000000+0
	rel 40+4 t=R_ADDROFF type:.namedata.*func(*inventory_benchmark.OOPItem) int-+0
	rel 44+4 t=RelocType(-32763) type:*func(*<unlinkable>.OOPItem) int+0
	rel 56+8 t=R_ADDR type:*<unlinkable>.OOPItem+0
	rel 64+8 t=R_ADDR type:int+0
type:.namedata.TotalWeight. SRODATA dupok size=13
	0x0000 01 0b 54 6f 74 61 6c 57 65 69 67 68 74           ..TotalWeight
type:.namedata.*func() int- SRODATA dupok size=13
	0x0000 00 0b 2a 66 75 6e 63 28 29 20 69 6e 74           ..*func() int
type:*func() int SRODATA dupok size=56
	0x0000 08 00 00 00 00 00 00 00 08 00 00 00 00 00 00 00  ................
	0x0010 a8 2d ca 18 08 08 08 36 00 00 00 00 00 00 00 00  .-.....6........
	0x0020 00 00 00 00 00 00 00 00 00 00 00 00 00 00 00 00  ................
	0x0030 00 00 00 00 00 00 00 00                          ........
	rel 24+8 t=R_ADDR runtime.memequal64·f+0
	rel 32+8 t=R_ADDR runtime.gcbits.0100000000000000+0
	rel 40+4 t=R_ADDROFF type:.namedata.*func() int-+0
	rel 48+8 t=R_ADDR type:func() int+0
type:func() int SRODATA dupok size=64
	0x0000 08 00 00 00 00 00 00 00 08 00 00 00 00 00 00 00  ................
	0x0010 bd 68 d6 de 02 08 08 33 00 00 00 00 00 00 00 00  .h.....3........
	0x0020 00 00 00 00 00 00 00 00 00 00 00 00 00 00 00 00  ................
	0x0030 00 00 01 00 00 00 00 00 00 00 00 00 00 00 00 00  ................
	rel 32+8 t=R_ADDR runtime.gcbits.0100000000000000+0
	rel 40+4 t=R_ADDROFF type:.namedata.*func() int-+0
	rel 44+4 t=RelocType(-32763) type:*func() int+0
	rel 56+8 t=R_ADDR type:int+0
type:*<unlinkable>.OOPItem SRODATA size=88
	0x0000 08 00 00 00 00 00 00 00 08 00 00 00 00 00 00 00  ................
	0x0010 65 e4 8f 55 09 08 08 36 00 00 00 00 00 00 00 00  e..U...6........
	0x0020 00 00 00 00 00 00 00 00 00 00 00 00 00 00 00 00  ................
	0x0030 00 00 00 00 00 00 00 00 00 00 00 00 01 00 01 00  ................
	0x0040 10 00 00 00 00 00 00 00 00 00 00 00 00 00 00 00  ................
	0x0050 00 00 00 00 00 00 00 00                          ........
	rel 24+8 t=R_ADDR runtime.memequal64·f+0
	rel 32+8 t=R_ADDR runtime.gcbits.0100000000000000+0
	rel 40+4 t=R_ADDROFF type:.namedata.*inventory_benchmark.OOPItem.+0
	rel 48+8 t=R_ADDR type:<unlinkable>.OOPItem+0
	rel 56+4 t=R_ADDROFF type:.importpath.<unlinkable>.+0
	rel 72+4 t=R_ADDROFF type:.namedata.TotalWeight.+0
	rel 76+4 t=R_METHODOFF type:func() int+0
	rel 80+4 t=R_METHODOFF <unlinkable>.(*OOPItem).TotalWeight+0
	rel 84+4 t=R_METHODOFF <unlinkable>.(*OOPItem).TotalWeight+0
type:<unlinkable>.OOPItem SRODATA size=312
	0x0000 30 58 00 00 00 00 00 00 40 00 00 00 00 00 00 00  0X......@.......
	0x0010 c0 df 13 2f 07 08 08 19 00 00 00 00 00 00 00 00  .../............
	0x0020 00 00 00 00 00 00 00 00 00 00 00 00 00 00 00 00  ................
	0x0030 00 00 00 00 00 00 00 00 00 00 00 00 00 00 00 00  ................
	0x0040 09 00 00 00 00 00 00 00 09 00 00 00 00 00 00 00  ................
	0x0050 00 00 00 00 00 00 00 00 e8 00 00 00 00 00 00 00  ................
	0x0060 00 00 00 00 00 00 00 00 00 00 00 00 00 00 00 00  ................
	0x0070 00 00 00 00 00 00 00 00 00 00 00 00 00 00 00 00  ................
	0x0080 00 00 00 00 00 00 00 00 08 00 00 00 00 00 00 00  ................
	0x0090 00 00 00 00 00 00 00 00 00 00 00 00 00 00 00 00  ................
	0x00a0 10 00 00 00 00 00 00 00 00 00 00 00 00 00 00 00  ................
	0x00b0 00 00 00 00 00 00 00 00 11 00 00 00 00 00 00 00  ................
	0x00c0 00 00 00 00 00 00 00 00 00 00 00 00 00 00 00 00  ................
	0x00d0 18 00 00 00 00 00 00 00 00 00 00 00 00 00 00 00  ................
	0x00e0 00 00 00 00 00 00 00 00 20 00 00 00 00 00 00 00  ........ .......
	0x00f0 00 00 00 00 00 00 00 00 00 00 00 00 00 00 00 00  ................
	0x0100 28 00 00 00 00 00 00 00 00 00 00 00 00 00 00 00  (...............
	0x0110 00 00 00 00 00 00 00 00 38 00 00 00 00 00 00 00  ........8.......
	0x0120 00 00 00 00 00 00 00 00 00 00 00 00 00 00 00 00  ................
	0x0130 48 00 00 00 00 00 00 00                          H.......
	rel 24+8 t=R_ADDR type:.eqfunc.<unlinkable>.OOPItem+0
	rel 32+8 t=R_ADDR runtime.gcbits.a000000000000000+0
	rel 40+4 t=R_ADDROFF type:.namedata.*inventory_benchmark.OOPItem.+0
	rel 44+4 t=R_ADDROFF type:*<unlinkable>.OOPItem+0
	rel 56+8 t=R_ADDR type:<unlinkable>.OOPItem+96
	rel 80+4 t=R_ADDROFF type:.importpath.<unlinkable>.+0
	rel 96+8 t=R_ADDR type:.namedata.Weight.+0
	rel 104+8 t=R_ADDR type:int+0
	rel 120+8 t=R_ADDR type:.namedata.Amount.+0
	rel 128+8 t=R_ADDR type:int+0
	rel 144+8 t=R_ADDR type:.namedata.CanBeUsedInMainHand.+0
	rel 152+8 t=R_ADDR type:bool+0
	rel 168+8 t=R_ADDR type:.namedata.CanBeUsedInOffHand.+0
	rel 176+8 t=R_ADDR type:bool+0
	rel 192+8 t=R_ADDR type:.namedata.Damage.+0
	rel 200+8 t=R_ADDR type:int+0
	rel 216+8 t=R_ADDR type:.namedata.Material.+0
	rel 224+8 t=R_ADDR type:<unlinkable>.material+0
	rel 240+8 t=R_ADDR type:.namedata.Name.+0
	rel 248+8 t=R_ADDR type:string+0
	rel 264+8 t=R_ADDR type:.namedata.Description.+0
	rel 272+8 t=R_ADDR type:string+0
	rel 288+8 t=R_ADDR type:.namedata.Texture.+0
	rel 296+8 t=R_ADDR type:[22500]uint8+0
type:.namedata.*[]inventory_benchmark.OOPItem- SRODATA dupok size=32
	0x0000 00 1e 2a 5b 5d 69 6e 76 65 6e 74 6f 72 79 5f 62  ..*[]inventory_b
	0x0010 65 6e 63 68 6d 61 72 6b 2e 4f 4f 50 49 74 65 6d  enchmark.OOPItem
type:*[]<unlinkable>.OOPItem SRODATA dupok size=56
	0x0000 08 00 00 00 00 00 00 00 08 00 00 00 00 00 00 00  ................
	0x0010 54 73 91 8e 08 08 08 36 00 00 00 00 00 00 00 00  Ts.....6........
	0x0020 00 00 00 00 00 00 00 00 00 00 00 00 00 00 00 00  ................
	0x0030 00 00 00 00 00 00 00 00                          ........
	rel 24+8 t=R_ADDR runtime.memequal64·f+0
	rel 32+8 t=R_ADDR runtime.gcbits.0100000000000000+0
	rel 40+4 t=R_ADDROFF type:.namedata.*[]inventory_benchmark.OOPItem-+0
	rel 48+8 t=R_ADDR type:[]<unlinkable>.OOPItem+0
type:[]<unlinkable>.OOPItem SRODATA dupok size=56
	0x0000 18 00 00 00 00 00 00 00 08 00 00 00 00 00 00 00  ................
	0x0010 f7 19 26 68 02 08 08 17 00 00 00 00 00 00 00 00  ..&h............
	0x0020 00 00 00 00 00 00 00 00 00 00 00 00 00 00 00 00  ................
	0x0030 00 00 00 00 00 00 00 00                          ........
	rel 32+8 t=R_ADDR runtime.gcbits.0100000000000000+0
	rel 40+4 t=R_ADDROFF type:.namedata.*[]inventory_benchmark.OOPItem-+0
	rel 44+4 t=RelocType(-32763) type:*[]<unlinkable>.OOPItem+0
	rel 48+8 t=R_ADDR type:<unlinkable>.OOPItem+0
go:constinfo.<unlinkable> SDWARFCONST size=193
	0x0000 0b 3c 75 6e 6c 69 6e 6b 61 62 6c 65 3e 2e 73 70  .<unlinkable>.sp
	0x0010 72 69 74 65 57 69 64 74 68 00 00 00 00 00 96 01  riteWidth.......
	0x0020 0b 3c 75 6e 6c 69 6e 6b 61 62 6c 65 3e 2e 73 70  .<unlinkable>.sp
	0x0030 72 69 74 65 48 65 69 67 68 74 00 00 00 00 00 96  riteHeight......
	0x0040 01 0b 3c 75 6e 6c 69 6e 6b 61 62 6c 65 3e 2e 75  ..<unlinkable>.u
	0x0050 6e 6b 6e 6f 77 6e 00 00 00 00 00 00 0b 3c 75 6e  nknown.......<un
	0x0060 6c 69 6e 6b 61 62 6c 65 3e 2e 77 6f 6f 64 00 00  linkable>.wood..
	0x0070 00 00 00 01 0b 3c 75 6e 6c 69 6e 6b 61 62 6c 65  .....<unlinkable
	0x0080 3e 2e 73 74 65 65 6c 00 00 00 00 00 02 0b 3c 75  >.steel.......<u
	0x0090 6e 6c 69 6e 6b 61 62 6c 65 3e 2e 73 74 6f 6e 65  nlinkable>.stone
	0x00a0 00 00 00 00 00 03 0b 3c 75 6e 6c 69 6e 6b 61 62  .......<unlinkab
	0x00b0 6c 65 3e 2e 6c 65 61 74 68 65 72 00 00 00 00 00  le>.leather.....
	0x00c0 04                                               .
	rel 26+4 t=R_DWARFSECREF go:info.int+0
	rel 59+4 t=R_DWARFSECREF go:info.int+0
	rel 87+4 t=R_DWARFSECREF go:info.<unlinkable>.material+0
	rel 111+4 t=R_DWARFSECREF go:info.<unlinkable>.material+0
	rel 136+4 t=R_DWARFSECREF go:info.<unlinkable>.material+0
	rel 161+4 t=R_DWARFSECREF go:info.<unlinkable>.material+0
	rel 188+4 t=R_DWARFSECREF go:info.<unlinkable>.material+0
type:.namedata.*inventory_benchmark.OOPInventory. SRODATA dupok size=35
	0x0000 01 21 2a 69 6e 76 65 6e 74 6f 72 79 5f 62 65 6e  .!*inventory_ben
	0x0010 63 68 6d 61 72 6b 2e 4f 4f 50 49 6e 76 65 6e 74  chmark.OOPInvent
	0x0020 6f 72 79                                         ory
type:.namedata.*func(*inventory_benchmark.OOPInventory) int- SRODATA dupok size=46
	0x0000 00 2c 2a 66 75 6e 63 28 2a 69 6e 76 65 6e 74 6f  .,*func(*invento
	0x0010 72 79 5f 62 65 6e 63 68 6d 61 72 6b 2e 4f 4f 50  ry_benchmark.OOP
	0x0020 49 6e 76 65 6e 74 6f 72 79 29 20 69 6e 74        Inventory) int
type:*func(*<unlinkable>.OOPInventory) int SRODATA dupok size=56
	0x0000 08 00 00 00 00 00 00 00 08 00 00 00 00 00 00 00  ................
	0x0010 0a b6 a6 ff 08 08 08 36 00 00 00 00 00 00 00 00  .......6........
	0x0020 00 00 00 00 00 00 00 00 00 00 00 00 00 00 00 00  ................
	0x0030 00 00 00 00 00 00 00 00                          ........
	rel 24+8 t=R_ADDR runtime.memequal64·f+0
	rel 32+8 t=R_ADDR runtime.gcbits.0100000000000000+0
	rel 40+4 t=R_ADDROFF type:.namedata.*func(*inventory_benchmark.OOPInventory) int-+0
	rel 48+8 t=R_ADDR type:func(*<unlinkable>.OOPInventory) int+0
type:func(*<unlinkable>.OOPInventory) int SRODATA dupok size=72
	0x0000 08 00 00 00 00 00 00 00 08 00 00 00 00 00 00 00  ................
	0x0010 56 74 95 ba 02 08 08 33 00 00 00 00 00 00 00 00  Vt.....3........
	0x0020 00 00 00 00 00 00 00 00 00 00 00 00 00 00 00 00  ................
	0x0030 01 00 01 00 00 00 00 00 00 00 00 00 00 00 00 00  ................
	0x0040 00 00 00 00 00 00 00 00                          ........
	rel 32+8 t=R_ADDR runtime.gcbits.0100000000000000+0
	rel 40+4 t=R_ADDROFF type:.namedata.*func(*inventory_benchmark.OOPInventory) int-+0
	rel 44+4 t=RelocType(-32763) type:*func(*<unlinkable>.OOPInventory) int+0
	rel 56+8 t=R_ADDR type:*<unlinkable>.OOPInventory+0
	rel 64+8 t=R_ADDR type:int+0
type:.namedata.TotalWeightOfIndividualItems. SRODATA dupok size=30
	0x0000 01 1c 54 6f 74 61 6c 57 65 69 67 68 74 4f 66 49  ..TotalWeightOfI
	0x0010 6e 64 69 76 69 64 75 61 6c 49 74 65 6d 73        ndividualItems
type:.namedata.TotalWeightOfIndividualItems_RangeLoopIndex. SRODATA dupok size=45
	0x0000 01 2b 54 6f 74 61 6c 57 65 69 67 68 74 4f 66 49  .+TotalWeightOfI
	0x0010 6e 64 69 76 69 64 75 61 6c 49 74 65 6d 73 5f 52  ndividualItems_R
	0x0020 61 6e 67 65 4c 6f 6f 70 49 6e 64 65 78           angeLoopIndex
type:.namedata.TotalWeightOfIndividualItems_RangeLoopValue. SRODATA dupok size=45
	0x0000 01 2b 54 6f 74 61 6c 57 65 69 67 68 74 4f 66 49  .+TotalWeightOfI
	0x0010 6e 64 69 76 69 64 75 61 6c 49 74 65 6d 73 5f 52  ndividualItems_R
	0x0020 61 6e 67 65 4c 6f 6f 70 56 61 6c 75 65           angeLoopValue
type:.namedata.TotalWeightOfInventory. SRODATA dupok size=24
	0x0000 01 16 54 6f 74 61 6c 57 65 69 67 68 74 4f 66 49  ..TotalWeightOfI
	0x0010 6e 76 65 6e 74 6f 72 79                          nventory
type:.namedata.TotalWeightOfInventory_ExtraCall. SRODATA dupok size=34
	0x0000 01 20 54 6f 74 61 6c 57 65 69 67 68 74 4f 66 49  . TotalWeightOfI
	0x0010 6e 76 65 6e 74 6f 72 79 5f 45 78 74 72 61 43 61  nventory_ExtraCa
	0x0020 6c 6c                                            ll
type:*<unlinkable>.OOPInventory SRODATA size=152
	0x0000 08 00 00 00 00 00 00 00 08 00 00 00 00 00 00 00  ................
	0x0010 94 58 1d 6a 09 08 08 36 00 00 00 00 00 00 00 00  .X.j...6........
	0x0020 00 00 00 00 00 00 00 00 00 00 00 00 00 00 00 00  ................
	0x0030 00 00 00 00 00 00 00 00 00 00 00 00 05 00 05 00  ................
	0x0040 10 00 00 00 00 00 00 00 00 00 00 00 00 00 00 00  ................
	0x0050 00 00 00 00 00 00 00 00 00 00 00 00 00 00 00 00  ................
	0x0060 00 00 00 00 00 00 00 00 00 00 00 00 00 00 00 00  ................
	0x0070 00 00 00 00 00 00 00 00 00 00 00 00 00 00 00 00  ................
	0x0080 00 00 00 00 00 00 00 00 00 00 00 00 00 00 00 00  ................
	0x0090 00 00 00 00 00 00 00 00                          ........
	rel 24+8 t=R_ADDR runtime.memequal64·f+0
	rel 32+8 t=R_ADDR runtime.gcbits.0100000000000000+0
	rel 40+4 t=R_ADDROFF type:.namedata.*inventory_benchmark.OOPInventory.+0
	rel 48+8 t=R_ADDR type:<unlinkable>.OOPInventory+0
	rel 56+4 t=R_ADDROFF type:.importpath.<unlinkable>.+0
	rel 72+4 t=R_ADDROFF type:.namedata.TotalWeightOfIndividualItems.+0
	rel 76+4 t=R_METHODOFF type:func() int+0
	rel 80+4 t=R_METHODOFF <unlinkable>.(*OOPInventory).TotalWeightOfIndividualItems+0
	rel 84+4 t=R_METHODOFF <unlinkable>.(*OOPInventory).TotalWeightOfIndividualItems+0
	rel 88+4 t=R_ADDROFF type:.namedata.TotalWeightOfIndividualItems_RangeLoopIndex.+0
	rel 92+4 t=R_METHODOFF type:func() int+0
	rel 96+4 t=R_METHODOFF <unlinkable>.(*OOPInventory).TotalWeightOfIndividualItems_RangeLoopIndex+0
	rel 100+4 t=R_METHODOFF <unlinkable>.(*OOPInventory).TotalWeightOfIndividualItems_RangeLoopIndex+0
	rel 104+4 t=R_ADDROFF type:.namedata.TotalWeightOfIndividualItems_RangeLoopValue.+0
	rel 108+4 t=R_METHODOFF type:func() int+0
	rel 112+4 t=R_METHODOFF <unlinkable>.(*OOPInventory).TotalWeightOfIndividualItems_RangeLoopValue+0
	rel 116+4 t=R_METHODOFF <unlinkable>.(*OOPInventory).TotalWeightOfIndividualItems_RangeLoopValue+0
	rel 120+4 t=R_ADDROFF type:.namedata.TotalWeightOfInventory.+0
	rel 124+4 t=R_METHODOFF type:func() int+0
	rel 128+4 t=R_METHODOFF <unlinkable>.(*OOPInventory).TotalWeightOfInventory+0
	rel 132+4 t=R_METHODOFF <unlinkable>.(*OOPInventory).TotalWeightOfInventory+0
	rel 136+4 t=R_ADDROFF type:.namedata.TotalWeightOfInventory_ExtraCall.+0
	rel 140+4 t=R_METHODOFF type:func() int+0
	rel 144+4 t=R_METHODOFF <unlinkable>.(*OOPInventory).TotalWeightOfInventory_ExtraCall+0
	rel 148+4 t=R_METHODOFF <unlinkable>.(*OOPInventory).TotalWeightOfInventory_ExtraCall+0
type:.namedata.slots- SRODATA dupok size=7
	0x0000 00 05 73 6c 6f 74 73                             ..slots
type:<unlinkable>.OOPInventory SRODATA size=120
	0x0000 18 00 00 00 00 00 00 00 08 00 00 00 00 00 00 00  ................
	0x0010 a4 99 4c 8b 07 08 08 19 00 00 00 00 00 00 00 00  ..L.............
	0x0020 00 00 00 00 00 00 00 00 00 00 00 00 00 00 00 00  ................
	0x0030 00 00 00 00 00 00 00 00 00 00 00 00 00 00 00 00  ................
	0x0040 01 00 00 00 00 00 00 00 01 00 00 00 00 00 00 00  ................
	0x0050 00 00 00 00 00 00 00 00 28 00 00 00 00 00 00 00  ........(.......
	0x0060 00 00 00 00 00 00 00 00 00 00 00 00 00 00 00 00  ................
	0x0070 00 00 00 00 00 00 00 00                          ........
	rel 32+8 t=R_ADDR runtime.gcbits.0100000000000000+0
	rel 40+4 t=R_ADDROFF type:.namedata.*inventory_benchmark.OOPInventory.+0
	rel 44+4 t=R_ADDROFF type:*<unlinkable>.OOPInventory+0
	rel 48+8 t=R_ADDR type:.importpath.<unlinkable>.+0
	rel 56+8 t=R_ADDR type:<unlinkable>.OOPInventory+96
	rel 80+4 t=R_ADDROFF type:.importpath.<unlinkable>.+0
	rel 96+8 t=R_ADDR type:.namedata.slots-+0
	rel 104+8 t=R_ADDR type:[]<unlinkable>.OOPItem+0
type:.eqfunc.<unlinkable>.AOSInventory SRODATA dupok size=8
	0x0000 00 00 00 00 00 00 00 00                          ........
	rel 0+8 t=R_ADDR type:.eq.<unlinkable>.AOSInventory+0
type:.namedata.*inventory_benchmark.AOSInventory. SRODATA dupok size=35
	0x0000 01 21 2a 69 6e 76 65 6e 74 6f 72 79 5f 62 65 6e  .!*inventory_ben
	0x0010 63 68 6d 61 72 6b 2e 41 4f 53 49 6e 76 65 6e 74  chmark.AOSInvent
	0x0020 6f 72 79                                         ory
type:*<unlinkable>.AOSInventory SRODATA size=56
	0x0000 08 00 00 00 00 00 00 00 08 00 00 00 00 00 00 00  ................
	0x0010 c5 56 b3 47 08 08 08 36 00 00 00 00 00 00 00 00  .V.G...6........
	0x0020 00 00 00 00 00 00 00 00 00 00 00 00 00 00 00 00  ................
	0x0030 00 00 00 00 00 00 00 00                          ........
	rel 24+8 t=R_ADDR runtime.memequal64·f+0
	rel 32+8 t=R_ADDR runtime.gcbits.0100000000000000+0
	rel 40+4 t=R_ADDROFF type:.namedata.*inventory_benchmark.AOSInventory.+0
	rel 48+8 t=R_ADDR type:<unlinkable>.AOSInventory+0
type:.gcprog.<unlinkable>.AOSInventory SRODATA dupok size=15
	0x0000 0b 00 00 00 09 a0 00 81 fd 15 80 86 16 0e 00     ...............
type:.eqfunc.[15]<unlinkable>.AOSItem SRODATA dupok size=8
	0x0000 00 00 00 00 00 00 00 00                          ........
	rel 0+8 t=R_ADDR type:.eq.[15]<unlinkable>.AOSItem+0
type:.namedata.*[15]inventory_benchmark.AOSItem- SRODATA dupok size=34
	0x0000 00 20 2a 5b 31 35 5d 69 6e 76 65 6e 74 6f 72 79  . *[15]inventory
	0x0010 5f 62 65 6e 63 68 6d 61 72 6b 2e 41 4f 53 49 74  _benchmark.AOSIt
	0x0020 65 6d                                            em
type:*[15]<unlinkable>.AOSItem SRODATA dupok size=56
	0x0000 08 00 00 00 00 00 00 00 08 00 00 00 00 00 00 00  ................
	0x0010 40 39 06 cf 08 08 08 36 00 00 00 00 00 00 00 00  @9.....6........
	0x0020 00 00 00 00 00 00 00 00 00 00 00 00 00 00 00 00  ................
	0x0030 00 00 00 00 00 00 00 00                          ........
	rel 24+8 t=R_ADDR runtime.memequal64·f+0
	rel 32+8 t=R_ADDR runtime.gcbits.0100000000000000+0
	rel 40+4 t=R_ADDROFF type:.namedata.*[15]inventory_benchmark.AOSItem-+0
	rel 48+8 t=R_ADDR type:[15]<unlinkable>.AOSItem+0
type:.gcprog.[15]<unlinkable>.AOSItem SRODATA dupok size=15
	0x0000 0b 00 00 00 09 a0 00 81 fd 15 80 86 16 0e 00     ...............
type:.namedata.*[]inventory_benchmark.AOSItem- SRODATA dupok size=32
	0x0000 00 1e 2a 5b 5d 69 6e 76 65 6e 74 6f 72 79 5f 62  ..*[]inventory_b
	0x0010 65 6e 63 68 6d 61 72 6b 2e 41 4f 53 49 74 65 6d  enchmark.AOSItem
type:*[]<unlinkable>.AOSItem SRODATA dupok size=56
	0x0000 08 00 00 00 00 00 00 00 08 00 00 00 00 00 00 00  ................
	0x0010 44 8b db d1 08 08 08 36 00 00 00 00 00 00 00 00  D......6........
	0x0020 00 00 00 00 00 00 00 00 00 00 00 00 00 00 00 00  ................
	0x0030 00 00 00 00 00 00 00 00                          ........
	rel 24+8 t=R_ADDR runtime.memequal64·f+0
	rel 32+8 t=R_ADDR runtime.gcbits.0100000000000000+0
	rel 40+4 t=R_ADDROFF type:.namedata.*[]inventory_benchmark.AOSItem-+0
	rel 48+8 t=R_ADDR type:[]<unlinkable>.AOSItem+0
type:[]<unlinkable>.AOSItem SRODATA dupok size=56
	0x0000 18 00 00 00 00 00 00 00 08 00 00 00 00 00 00 00  ................
	0x0010 31 d5 49 e9 02 08 08 17 00 00 00 00 00 00 00 00  1.I.............
	0x0020 00 00 00 00 00 00 00 00 00 00 00 00 00 00 00 00  ................
	0x0030 00 00 00 00 00 00 00 00                          ........
	rel 32+8 t=R_ADDR runtime.gcbits.0100000000000000+0
	rel 40+4 t=R_ADDROFF type:.namedata.*[]inventory_benchmark.AOSItem-+0
	rel 44+4 t=RelocType(-32763) type:*[]<unlinkable>.AOSItem+0
	rel 48+8 t=R_ADDR type:<unlinkable>.AOSItem+0
type:[15]<unlinkable>.AOSItem SRODATA dupok size=72
	0x0000 d0 2a 05 00 00 00 00 00 d0 2a 05 00 00 00 00 00  .*.......*......
	0x0010 34 e9 51 e3 02 08 08 51 00 00 00 00 00 00 00 00  4.Q....Q........
	0x0020 00 00 00 00 00 00 00 00 00 00 00 00 00 00 00 00  ................
	0x0030 00 00 00 00 00 00 00 00 00 00 00 00 00 00 00 00  ................
	0x0040 0f 00 00 00 00 00 00 00                          ........
	rel 24+8 t=R_ADDR type:.eqfunc.[15]<unlinkable>.AOSItem+0
	rel 32+8 t=R_ADDR type:.gcprog.[15]<unlinkable>.AOSItem+0
	rel 40+4 t=R_ADDROFF type:.namedata.*[15]inventory_benchmark.AOSItem-+0
	rel 44+4 t=RelocType(-32763) type:*[15]<unlinkable>.AOSItem+0
	rel 48+8 t=R_ADDR type:<unlinkable>.AOSItem+0
	rel 56+8 t=R_ADDR type:[]<unlinkable>.AOSItem+0
type:<unlinkable>.AOSInventory SRODATA size=120
	0x0000 d0 2a 05 00 00 00 00 00 d0 2a 05 00 00 00 00 00  .*.......*......
	0x0010 31 0e 8b 7c 07 08 08 59 00 00 00 00 00 00 00 00  1..|...Y........
	0x0020 00 00 00 00 00 00 00 00 00 00 00 00 00 00 00 00  ................
	0x0030 00 00 00 00 00 00 00 00 00 00 00 00 00 00 00 00  ................
	0x0040 01 00 00 00 00 00 00 00 01 00 00 00 00 00 00 00  ................
	0x0050 00 00 00 00 00 00 00 00 28 00 00 00 00 00 00 00  ........(.......
	0x0060 00 00 00 00 00 00 00 00 00 00 00 00 00 00 00 00  ................
	0x0070 00 00 00 00 00 00 00 00                          ........
	rel 24+8 t=R_ADDR type:.eqfunc.<unlinkable>.AOSInventory+0
	rel 32+8 t=R_ADDR type:.gcprog.<unlinkable>.AOSInventory+0
	rel 40+4 t=R_ADDROFF type:.namedata.*inventory_benchmark.AOSInventory.+0
	rel 44+4 t=R_ADDROFF type:*<unlinkable>.AOSInventory+0
	rel 48+8 t=R_ADDR type:.importpath.<unlinkable>.+0
	rel 56+8 t=R_ADDR type:<unlinkable>.AOSInventory+96
	rel 80+4 t=R_ADDROFF type:.importpath.<unlinkable>.+0
	rel 96+8 t=R_ADDR type:.namedata.slots-+0
	rel 104+8 t=R_ADDR type:[15]<unlinkable>.AOSItem+0
type:.eqfunc.<unlinkable>.SWAInventory SRODATA dupok size=8
	0x0000 00 00 00 00 00 00 00 00                          ........
	rel 0+8 t=R_ADDR type:.eq.<unlinkable>.SWAInventory+0
type:.namedata.*inventory_benchmark.SWAInventory. SRODATA dupok size=35
	0x0000 01 21 2a 69 6e 76 65 6e 74 6f 72 79 5f 62 65 6e  .!*inventory_ben
	0x0010 63 68 6d 61 72 6b 2e 53 57 41 49 6e 76 65 6e 74  chmark.SWAInvent
	0x0020 6f 72 79                                         ory
type:*<unlinkable>.SWAInventory SRODATA size=56
	0x0000 08 00 00 00 00 00 00 00 08 00 00 00 00 00 00 00  ................
	0x0010 79 c8 ea 37 08 08 08 36 00 00 00 00 00 00 00 00  y..7...6........
	0x0020 00 00 00 00 00 00 00 00 00 00 00 00 00 00 00 00  ................
	0x0030 00 00 00 00 00 00 00 00                          ........
	rel 24+8 t=R_ADDR runtime.memequal64·f+0
	rel 32+8 t=R_ADDR runtime.gcbits.0100000000000000+0
	rel 40+4 t=R_ADDROFF type:.namedata.*inventory_benchmark.SWAInventory.+0
	rel 48+8 t=R_ADDR type:<unlinkable>.SWAInventory+0
runtime.gcbits.00000000000000005555555555555505 SRODATA dupok size=16
	0x0000 00 00 00 00 00 00 00 00 55 55 55 55 55 55 55 05  ........UUUUUUU.
type:.eqfunc120 SRODATA dupok size=16
	0x0000 00 00 00 00 00 00 00 00 78 00 00 00 00 00 00 00  ........x.......
	rel 0+8 t=R_ADDR runtime.memequal_varlen+0
type:.namedata.*[15]int- SRODATA dupok size=10
	0x0000 00 08 2a 5b 31 35 5d 69 6e 74                    ..*[15]int
type:*[15]int SRODATA dupok size=56
	0x0000 08 00 00 00 00 00 00 00 08 00 00 00 00 00 00 00  ................
	0x0010 68 0b 06 20 08 08 08 36 00 00 00 00 00 00 00 00  h.. ...6........
	0x0020 00 00 00 00 00 00 00 00 00 00 00 00 00 00 00 00  ................
	0x0030 00 00 00 00 00 00 00 00                          ........
	rel 24+8 t=R_ADDR runtime.memequal64·f+0
	rel 32+8 t=R_ADDR runtime.gcbits.0100000000000000+0
	rel 40+4 t=R_ADDROFF type:.namedata.*[15]int-+0
	rel 48+8 t=R_ADDR type:[15]int+0
type:[15]int SRODATA dupok size=72
	0x0000 78 00 00 00 00 00 00 00 00 00 00 00 00 00 00 00  x...............
	0x0010 2f cf e0 b3 0a 08 08 11 00 00 00 00 00 00 00 00  /...............
	0x0020 00 00 00 00 00 00 00 00 00 00 00 00 00 00 00 00  ................
	0x0030 00 00 00 00 00 00 00 00 00 00 00 00 00 00 00 00  ................
	0x0040 0f 00 00 00 00 00 00 00                          ........
	rel 24+8 t=R_ADDR type:.eqfunc120+0
	rel 32+8 t=R_ADDR runtime.gcbits.+0
	rel 40+4 t=R_ADDROFF type:.namedata.*[15]int-+0
	rel 44+4 t=RelocType(-32763) type:*[15]int+0
	rel 48+8 t=R_ADDR type:int+0
	rel 56+8 t=R_ADDR type:[]int+0
type:.namedata.*[15]inventory_benchmark.material- SRODATA dupok size=35
	0x0000 00 21 2a 5b 31 35 5d 69 6e 76 65 6e 74 6f 72 79  .!*[15]inventory
	0x0010 5f 62 65 6e 63 68 6d 61 72 6b 2e 6d 61 74 65 72  _benchmark.mater
	0x0020 69 61 6c                                         ial
type:*[15]<unlinkable>.material SRODATA dupok size=56
	0x0000 08 00 00 00 00 00 00 00 08 00 00 00 00 00 00 00  ................
	0x0010 29 20 9a 1f 08 08 08 36 00 00 00 00 00 00 00 00  ) .....6........
	0x0020 00 00 00 00 00 00 00 00 00 00 00 00 00 00 00 00  ................
	0x0030 00 00 00 00 00 00 00 00                          ........
	rel 24+8 t=R_ADDR runtime.memequal64·f+0
	rel 32+8 t=R_ADDR runtime.gcbits.0100000000000000+0
	rel 40+4 t=R_ADDROFF type:.namedata.*[15]inventory_benchmark.material-+0
	rel 48+8 t=R_ADDR type:[15]<unlinkable>.material+0
type:.namedata.*[]inventory_benchmark.material- SRODATA dupok size=33
	0x0000 00 1f 2a 5b 5d 69 6e 76 65 6e 74 6f 72 79 5f 62  ..*[]inventory_b
	0x0010 65 6e 63 68 6d 61 72 6b 2e 6d 61 74 65 72 69 61  enchmark.materia
	0x0020 6c                                               l
type:*[]<unlinkable>.material SRODATA dupok size=56
	0x0000 08 00 00 00 00 00 00 00 08 00 00 00 00 00 00 00  ................
	0x0010 b9 9f 4d 89 08 08 08 36 00 00 00 00 00 00 00 00  ..M....6........
	0x0020 00 00 00 00 00 00 00 00 00 00 00 00 00 00 00 00  ................
	0x0030 00 00 00 00 00 00 00 00                          ........
	rel 24+8 t=R_ADDR runtime.memequal64·f+0
	rel 32+8 t=R_ADDR runtime.gcbits.0100000000000000+0
	rel 40+4 t=R_ADDROFF type:.namedata.*[]inventory_benchmark.material-+0
	rel 48+8 t=R_ADDR type:[]<unlinkable>.material+0
type:[]<unlinkable>.material SRODATA dupok size=56
	0x0000 18 00 00 00 00 00 00 00 08 00 00 00 00 00 00 00  ................
	0x0010 65 c5 9d 05 02 08 08 17 00 00 00 00 00 00 00 00  e...............
	0x0020 00 00 00 00 00 00 00 00 00 00 00 00 00 00 00 00  ................
	0x0030 00 00 00 00 00 00 00 00                          ........
	rel 32+8 t=R_ADDR runtime.gcbits.0100000000000000+0
	rel 40+4 t=R_ADDROFF type:.namedata.*[]inventory_benchmark.material-+0
	rel 44+4 t=RelocType(-32763) type:*[]<unlinkable>.material+0
	rel 48+8 t=R_ADDR type:<unlinkable>.material+0
type:[15]<unlinkable>.material SRODATA dupok size=72
	0x0000 78 00 00 00 00 00 00 00 00 00 00 00 00 00 00 00  x...............
	0x0010 27 02 13 82 0a 08 08 11 00 00 00 00 00 00 00 00  '...............
	0x0020 00 00 00 00 00 00 00 00 00 00 00 00 00 00 00 00  ................
	0x0030 00 00 00 00 00 00 00 00 00 00 00 00 00 00 00 00  ................
	0x0040 0f 00 00 00 00 00 00 00                          ........
	rel 24+8 t=R_ADDR type:.eqfunc120+0
	rel 32+8 t=R_ADDR runtime.gcbits.+0
	rel 40+4 t=R_ADDROFF type:.namedata.*[15]inventory_benchmark.material-+0
	rel 44+4 t=RelocType(-32763) type:*[15]<unlinkable>.material+0
	rel 48+8 t=R_ADDR type:<unlinkable>.material+0
	rel 56+8 t=R_ADDR type:[]<unlinkable>.material+0
type:.eqfunc15 SRODATA dupok size=16
	0x0000 00 00 00 00 00 00 00 00 0f 00 00 00 00 00 00 00  ................
	rel 0+8 t=R_ADDR runtime.memequal_varlen+0
type:.namedata.*[15]bool- SRODATA dupok size=11
	0x0000 00 09 2a 5b 31 35 5d 62 6f 6f 6c                 ..*[15]bool
type:*[15]bool SRODATA dupok size=56
	0x0000 08 00 00 00 00 00 00 00 08 00 00 00 00 00 00 00  ................
	0x0010 2f 36 58 ad 08 08 08 36 00 00 00 00 00 00 00 00  /6X....6........
	0x0020 00 00 00 00 00 00 00 00 00 00 00 00 00 00 00 00  ................
	0x0030 00 00 00 00 00 00 00 00                          ........
	rel 24+8 t=R_ADDR runtime.memequal64·f+0
	rel 32+8 t=R_ADDR runtime.gcbits.0100000000000000+0
	rel 40+4 t=R_ADDROFF type:.namedata.*[15]bool-+0
	rel 48+8 t=R_ADDR type:[15]bool+0
type:[15]bool SRODATA dupok size=72
	0x0000 0f 00 00 00 00 00 00 00 00 00 00 00 00 00 00 00  ................
	0x0010 7e 7b 5f 49 0a 01 01 11 00 00 00 00 00 00 00 00  ~{_I............
	0x0020 00 00 00 00 00 00 00 00 00 00 00 00 00 00 00 00  ................
	0x0030 00 00 00 00 00 00 00 00 00 00 00 00 00 00 00 00  ................
	0x0040 0f 00 00 00 00 00 00 00                          ........
	rel 24+8 t=R_ADDR type:.eqfunc15+0
	rel 32+8 t=R_ADDR runtime.gcbits.+0
	rel 40+4 t=R_ADDROFF type:.namedata.*[15]bool-+0
	rel 44+4 t=RelocType(-32763) type:*[15]bool+0
	rel 48+8 t=R_ADDR type:bool+0
	rel 56+8 t=R_ADDR type:[]bool+0
type:.eqfunc.[15]string SRODATA dupok size=8
	0x0000 00 00 00 00 00 00 00 00                          ........
	rel 0+8 t=R_ADDR type:.eq.[15]string+0
type:.namedata.*[15]string- SRODATA dupok size=13
	0x0000 00 0b 2a 5b 31 35 5d 73 74 72 69 6e 67           ..*[15]string
type:*[15]string SRODATA dupok size=56
	0x0000 08 00 00 00 00 00 00 00 08 00 00 00 00 00 00 00  ................
	0x0010 44 95 c5 fc 08 08 08 36 00 00 00 00 00 00 00 00  D......6........
	0x0020 00 00 00 00 00 00 00 00 00 00 00 00 00 00 00 00  ................
	0x0030 00 00 00 00 00 00 00 00                          ........
	rel 24+8 t=R_ADDR runtime.memequal64·f+0
	rel 32+8 t=R_ADDR runtime.gcbits.0100000000000000+0
	rel 40+4 t=R_ADDROFF type:.namedata.*[15]string-+0
	rel 48+8 t=R_ADDR type:[15]string+0
runtime.gcbits.5555551500000000 SRODATA dupok size=8
	0x0000 55 55 55 15 00 00 00 00                          UUU.....
type:[15]string SRODATA dupok size=72
	0x0000 f0 00 00 00 00 00 00 00 e8 00 00 00 00 00 00 00  ................
	0x0010 d2 bd fb d4 02 08 08 11 00 00 00 00 00 00 00 00  ................
	0x0020 00 00 00 00 00 00 00 00 00 00 00 00 00 00 00 00  ................
	0x0030 00 00 00 00 00 00 00 00 00 00 00 00 00 00 00 00  ................
	0x0040 0f 00 00 00 00 00 00 00                          ........
	rel 24+8 t=R_ADDR type:.eqfunc.[15]string+0
	rel 32+8 t=R_ADDR runtime.gcbits.5555551500000000+0
	rel 40+4 t=R_ADDROFF type:.namedata.*[15]string-+0
	rel 44+4 t=RelocType(-32763) type:*[15]string+0
	rel 48+8 t=R_ADDR type:string+0
	rel 56+8 t=R_ADDR type:[]string+0
type:.eqfunc337500 SRODATA dupok size=16
	0x0000 00 00 00 00 00 00 00 00 5c 26 05 00 00 00 00 00  ........\&......
	rel 0+8 t=R_ADDR runtime.memequal_varlen+0
type:.namedata.*[15][22500]uint8- SRODATA dupok size=19
	0x0000 00 11 2a 5b 31 35 5d 5b 32 32 35 30 30 5d 75 69  ..*[15][22500]ui
	0x0010 6e 74 38                                         nt8
type:*[15][22500]uint8 SRODATA dupok size=56
	0x0000 08 00 00 00 00 00 00 00 08 00 00 00 00 00 00 00  ................
	0x0010 8c 0d 4a d7 08 08 08 36 00 00 00 00 00 00 00 00  ..J....6........
	0x0020 00 00 00 00 00 00 00 00 00 00 00 00 00 00 00 00  ................
	0x0030 00 00 00 00 00 00 00 00                          ........
	rel 24+8 t=R_ADDR runtime.memequal64·f+0
	rel 32+8 t=R_ADDR runtime.gcbits.0100000000000000+0
	rel 40+4 t=R_ADDROFF type:.namedata.*[15][22500]uint8-+0
	rel 48+8 t=R_ADDR type:[15][22500]uint8+0
type:.namedata.*[][22500]uint8- SRODATA dupok size=17
	0x0000 00 0f 2a 5b 5d 5b 32 32 35 30 30 5d 75 69 6e 74  ..*[][22500]uint
	0x0010 38                                               8
type:*[][22500]uint8 SRODATA dupok size=56
	0x0000 08 00 00 00 00 00 00 00 08 00 00 00 00 00 00 00  ................
	0x0010 e7 44 7c 4b 08 08 08 36 00 00 00 00 00 00 00 00  .D|K...6........
	0x0020 00 00 00 00 00 00 00 00 00 00 00 00 00 00 00 00  ................
	0x0030 00 00 00 00 00 00 00 00                          ........
	rel 24+8 t=R_ADDR runtime.memequal64·f+0
	rel 32+8 t=R_ADDR runtime.gcbits.0100000000000000+0
	rel 40+4 t=R_ADDROFF type:.namedata.*[][22500]uint8-+0
	rel 48+8 t=R_ADDR type:[][22500]uint8+0
type:[][22500]uint8 SRODATA dupok size=56
	0x0000 18 00 00 00 00 00 00 00 08 00 00 00 00 00 00 00  ................
	0x0010 6b 7d 1e 8a 02 08 08 17 00 00 00 00 00 00 00 00  k}..............
	0x0020 00 00 00 00 00 00 00 00 00 00 00 00 00 00 00 00  ................
	0x0030 00 00 00 00 00 00 00 00                          ........
	rel 32+8 t=R_ADDR runtime.gcbits.0100000000000000+0
	rel 40+4 t=R_ADDROFF type:.namedata.*[][22500]uint8-+0
	rel 44+4 t=RelocType(-32763) type:*[][22500]uint8+0
	rel 48+8 t=R_ADDR type:[22500]uint8+0
type:[15][22500]uint8 SRODATA dupok size=72
	0x0000 5c 26 05 00 00 00 00 00 00 00 00 00 00 00 00 00  \&..............
	0x0010 2c 1c 69 41 0a 01 01 11 00 00 00 00 00 00 00 00  ,.iA............
	0x0020 00 00 00 00 00 00 00 00 00 00 00 00 00 00 00 00  ................
	0x0030 00 00 00 00 00 00 00 00 00 00 00 00 00 00 00 00  ................
	0x0040 0f 00 00 00 00 00 00 00                          ........
	rel 24+8 t=R_ADDR type:.eqfunc337500+0
	rel 32+8 t=R_ADDR runtime.gcbits.+0
	rel 40+4 t=R_ADDROFF type:.namedata.*[15][22500]uint8-+0
	rel 44+4 t=RelocType(-32763) type:*[15][22500]uint8+0
	rel 48+8 t=R_ADDR type:[22500]uint8+0
	rel 56+8 t=R_ADDR type:[][22500]uint8+0
type:<unlinkable>.SWAInventory SRODATA size=312
	0x0000 40 2a 05 00 00 00 00 00 d8 03 00 00 00 00 00 00  @*..............
	0x0010 19 6b 2b 42 07 08 08 19 00 00 00 00 00 00 00 00  .k+B............
	0x0020 00 00 00 00 00 00 00 00 00 00 00 00 00 00 00 00  ................
	0x0030 00 00 00 00 00 00 00 00 00 00 00 00 00 00 00 00  ................
	0x0040 09 00 00 00 00 00 00 00 09 00 00 00 00 00 00 00  ................
	0x0050 00 00 00 00 00 00 00 00 e8 00 00 00 00 00 00 00  ................
	0x0060 00 00 00 00 00 00 00 00 00 00 00 00 00 00 00 00  ................
	0x0070 00 00 00 00 00 00 00 00 00 00 00 00 00 00 00 00  ................
	0x0080 00 00 00 00 00 00 00 00 78 00 00 00 00 00 00 00  ........x.......
	0x0090 00 00 00 00 00 00 00 00 00 00 00 00 00 00 00 00  ................
	0x00a0 f0 00 00 00 00 00 00 00 00 00 00 00 00 00 00 00  ................
	0x00b0 00 00 00 00 00 00 00 00 68 01 00 00 00 00 00 00  ........h.......
	0x00c0 00 00 00 00 00 00 00 00 00 00 00 00 00 00 00 00  ................
	0x00d0 e0 01 00 00 00 00 00 00 00 00 00 00 00 00 00 00  ................
	0x00e0 00 00 00 00 00 00 00 00 ef 01 00 00 00 00 00 00  ................
	0x00f0 00 00 00 00 00 00 00 00 00 00 00 00 00 00 00 00  ................
	0x0100 00 02 00 00 00 00 00 00 00 00 00 00 00 00 00 00  ................
	0x0110 00 00 00 00 00 00 00 00 f0 02 00 00 00 00 00 00  ................
	0x0120 00 00 00 00 00 00 00 00 00 00 00 00 00 00 00 00  ................
	0x0130 e0 03 00 00 00 00 00 00                          ........
	rel 24+8 t=R_ADDR type:.eqfunc.<unlinkable>.SWAInventory+0
	rel 32+8 t=R_ADDR runtime.gcbits.00000000000000005555555555555505+0
	rel 40+4 t=R_ADDROFF type:.namedata.*inventory_benchmark.SWAInventory.+0
	rel 44+4 t=R_ADDROFF type:*<unlinkable>.SWAInventory+0
	rel 56+8 t=R_ADDR type:<unlinkable>.SWAInventory+96
	rel 80+4 t=R_ADDROFF type:.importpath.<unlinkable>.+0
	rel 96+8 t=R_ADDR type:.namedata.Weight.+0
	rel 104+8 t=R_ADDR type:[15]int+0
	rel 120+8 t=R_ADDR type:.namedata.Amount.+0
	rel 128+8 t=R_ADDR type:[15]int+0
	rel 144+8 t=R_ADDR type:.namedata.Material.+0
	rel 152+8 t=R_ADDR type:[15]<unlinkable>.material+0
	rel 168+8 t=R_ADDR type:.namedata.Damage.+0
	rel 176+8 t=R_ADDR type:[15]int+0
	rel 192+8 t=R_ADDR type:.namedata.CanBeUsedInMainHand.+0
	rel 200+8 t=R_ADDR type:[15]bool+0
	rel 216+8 t=R_ADDR type:.namedata.CanBeUsedInOffHand.+0
	rel 224+8 t=R_ADDR type:[15]bool+0
	rel 240+8 t=R_ADDR type:.namedata.Name.+0
	rel 248+8 t=R_ADDR type:[15]string+0
	rel 264+8 t=R_ADDR type:.namedata.Description.+0
	rel 272+8 t=R_ADDR type:[15]string+0
	rel 288+8 t=R_ADDR type:.namedata.Texture.+0
	rel 296+8 t=R_ADDR type:[15][22500]uint8+0
gclocals·J5F+7Qw7O7ve2QcWC7DpeQ== SRODATA dupok size=8
	0x0000 02 00 00 00 00 00 00 00                          ........
gclocals·CnDyI2HjYXFz19SsOj98tw== SRODATA dupok size=10
	0x0000 02 00 00 00 01 00 00 00 00 01                    ..........
<unlinkable>.NewOOPInventory.arginfo1 SRODATA static dupok size=3
	0x0000 00 08 ff                                         ...
<unlinkable>.NewOOPInventory.argliveinfo SRODATA static dupok size=2
	0x0000 00 00                                            ..
gclocals·wgcWObbY2HYnK2SU/U22lA== SRODATA dupok size=10
	0x0000 02 00 00 00 01 00 00 00 01 00                    ..........
<unlinkable>.(*OOPItem).TotalWeight.arginfo1 SRODATA static dupok size=3
	0x0000 00 08 ff                                         ...
<unlinkable>.(*OOPItem).TotalWeight.argliveinfo SRODATA static dupok size=2
	0x0000 00 00                                            ..
gclocals·7k5JwPhlpxxuv0sfCh+TsQ== SRODATA dupok size=714
	0x0000 02 00 00 00 06 0b 00 00 00 00 00 00 00 00 00 00  ................
	0x0010 00 00 00 00 00 00 00 00 00 00 00 00 00 00 00 00  ................
	0x0020 00 00 00 00 00 00 00 00 00 00 00 00 00 00 00 00  ................
	0x0030 00 00 00 00 00 00 00 00 00 00 00 00 00 00 00 00  ................
	0x0040 00 00 00 00 00 00 00 00 00 00 00 00 00 00 00 00  ................
	0x0050 00 00 00 00 00 00 00 00 00 00 00 00 00 00 00 00  ................
	0x0060 00 00 00 00 00 00 00 00 00 00 00 00 00 00 00 00  ................
	0x0070 00 00 00 00 00 00 00 00 00 00 00 00 00 00 00 00  ................
	0x0080 00 00 00 00 00 00 00 00 00 00 00 00 00 00 00 00  ................
	0x0090 00 00 00 00 00 00 00 00 00 00 00 00 00 00 00 00  ................
	0x00a0 00 00 00 00 00 00 00 00 00 00 00 00 00 00 00 00  ................
	0x00b0 00 00 00 00 00 00 00 00 00 00 00 00 00 00 00 00  ................
	0x00c0 00 00 00 00 00 00 00 00 00 00 00 00 00 00 00 00  ................
	0x00d0 00 00 00 00 00 00 00 00 00 00 00 00 00 00 00 00  ................
	0x00e0 00 00 00 00 00 00 00 00 00 00 00 00 00 00 00 00  ................
	0x00f0 00 00 00 00 00 00 00 00 00 00 00 00 00 00 00 00  ................
	0x0100 00 00 00 00 00 00 00 00 00 00 00 00 00 00 00 00  ................
	0x0110 00 00 00 00 00 00 00 00 00 00 00 00 00 00 00 00  ................
	0x0120 00 00 00 00 00 00 00 00 00 00 00 00 00 00 00 00  ................
	0x0130 00 00 00 00 00 00 00 00 00 00 00 00 00 00 00 00  ................
	0x0140 00 00 00 00 00 00 00 00 00 00 00 00 00 00 00 00  ................
	0x0150 00 00 00 00 00 00 00 00 00 00 00 00 00 00 00 00  ................
	0x0160 00 00 00 00 00 00 00 00 00 00 00 00 00 00 00 00  ................
	0x0170 00 00 00 00 00 00 00 00 00 00 00 00 00 00 00 00  ................
	0x0180 00 00 00 00 00 00 00 00 00 00 00 00 00 00 00 00  ................
	0x0190 00 00 00 00 00 00 00 00 00 00 00 00 00 00 00 00  ................
	0x01a0 00 00 00 00 00 00 00 00 00 00 00 00 00 00 00 00  ................
	0x01b0 00 00 00 00 00 00 00 00 00 00 00 00 00 00 00 00  ................
	0x01c0 00 00 00 00 00 00 00 00 00 00 00 00 00 00 00 00  ................
	0x01d0 00 00 00 00 00 00 00 00 00 00 00 00 00 00 00 00  ................
	0x01e0 00 00 00 00 00 00 00 00 00 00 00 00 00 00 00 00  ................
	0x01f0 00 00 00 00 00 00 00 00 00 00 00 00 00 00 00 00  ................
	0x0200 00 00 00 00 00 00 00 00 00 00 00 00 00 00 00 00  ................
	0x0210 00 00 00 00 00 00 00 00 00 00 00 00 00 00 00 00  ................
	0x0220 00 00 00 00 00 00 00 00 00 00 00 00 00 00 00 00  ................
	0x0230 00 00 00 00 00 00 00 00 00 00 00 00 00 00 00 00  ................
	0x0240 00 00 00 00 00 00 00 00 00 00 00 00 00 00 00 00  ................
	0x0250 00 00 00 00 00 00 00 00 00 00 00 00 00 00 00 00  ................
	0x0260 00 00 00 00 00 00 00 00 00 00 00 00 00 00 00 00  ................
	0x0270 00 00 00 00 00 00 00 00 00 00 00 00 00 00 00 00  ................
	0x0280 00 00 00 00 00 00 00 00 00 00 00 00 00 00 00 00  ................
	0x0290 00 00 00 00 00 00 00 00 00 00 00 00 00 00 00 00  ................
	0x02a0 00 00 00 00 00 00 00 00 00 00 00 00 00 00 00 00  ................
	0x02b0 00 00 00 00 00 00 00 00 00 00 00 00 00 00 00 00  ................
	0x02c0 00 00 00 00 00 00 00 00 00 00                    ..........
<unlinkable>.(*OOPInventory).TotalWeightOfIndividualItems_RangeLoopValue.arginfo1 SRODATA static dupok size=3
	0x0000 00 08 ff                                         ...
<unlinkable>.(*OOPInventory).TotalWeightOfIndividualItems_RangeLoopValue.argliveinfo SRODATA static dupok size=2
	0x0000 00 00                                            ..
<unlinkable>.(*OOPInventory).TotalWeightOfIndividualItems_RangeLoopIndex.arginfo1 SRODATA static dupok size=3
	0x0000 00 08 ff                                         ...
<unlinkable>.(*OOPInventory).TotalWeightOfIndividualItems_RangeLoopIndex.argliveinfo SRODATA static dupok size=2
	0x0000 00 00                                            ..
<unlinkable>.(*OOPInventory).TotalWeightOfIndividualItems.arginfo1 SRODATA static dupok size=3
	0x0000 00 08 ff                                         ...
<unlinkable>.(*OOPInventory).TotalWeightOfIndividualItems.argliveinfo SRODATA static dupok size=2
	0x0000 00 00                                            ..
<unlinkable>.(*OOPInventory).TotalWeightOfInventory.arginfo1 SRODATA static dupok size=3
	0x0000 00 08 ff                                         ...
<unlinkable>.(*OOPInventory).TotalWeightOfInventory.argliveinfo SRODATA static dupok size=2
	0x0000 00 00                                            ..
<unlinkable>.(*OOPInventory).TotalWeightOfInventory_ExtraCall.arginfo1 SRODATA static dupok size=3
	0x0000 00 08 ff                                         ...
<unlinkable>.(*OOPInventory).TotalWeightOfInventory_ExtraCall.argliveinfo SRODATA static dupok size=2
	0x0000 00 00                                            ..
gclocals·0UxQrd3uNHf3dlUxnX2a+w== SRODATA dupok size=11296
	0x0000 02 00 00 00 60 b0 00 00 00 00 00 00 00 00 00 00  ....`...........
	0x0010 00 00 00 00 00 00 00 00 00 00 00 00 00 00 00 00  ................
	0x0020 00 00 00 00 00 00 00 00 00 00 00 00 00 00 00 00  ................
	0x0030 00 00 00 00 00 00 00 00 00 00 00 00 00 00 00 00  ................
	0x0040 00 00 00 00 00 00 00 00 00 00 00 00 00 00 00 00  ................
	0x0050 00 00 00 00 00 00 00 00 00 00 00 00 00 00 00 00  ................
	0x0060 00 00 00 00 00 00 00 00 00 00 00 00 00 00 00 00  ................
	0x0070 00 00 00 00 00 00 00 00 00 00 00 00 00 00 00 00  ................
	0x0080 00 00 00 00 00 00 00 00 00 00 00 00 00 00 00 00  ................
	0x0090 00 00 00 00 00 00 00 00 00 00 00 00 00 00 00 00  ................
	0x00a0 00 00 00 00 00 00 00 00 00 00 00 00 00 00 00 00  ................
	0x00b0 00 00 00 00 00 00 00 00 00 00 00 00 00 00 00 00  ................
	0x00c0 00 00 00 00 00 00 00 00 00 00 00 00 00 00 00 00  ................
	0x00d0 00 00 00 00 00 00 00 00 00 00 00 00 00 00 00 00  ................
	0x00e0 00 00 00 00 00 00 00 00 00 00 00 00 00 00 00 00  ................
	0x00f0 00 00 00 00 00 00 00 00 00 00 00 00 00 00 00 00  ................
	0x0100 00 00 00 00 00 00 00 00 00 00 00 00 00 00 00 00  ................
	0x0110 00 00 00 00 00 00 00 00 00 00 00 00 00 00 00 00  ................
	0x0120 00 00 00 00 00 00 00 00 00 00 00 00 00 00 00 00  ................
	0x0130 00 00 00 00 00 00 00 00 00 00 00 00 00 00 00 00  ................
	0x0140 00 00 00 00 00 00 00 00 00 00 00 00 00 00 00 00  ................
	0x0150 00 00 00 00 00 00 00 00 00 00 00 00 00 00 00 00  ................
	0x0160 00 00 00 00 00 00 00 00 00 00 00 00 00 00 00 00  ................
	0x0170 00 00 00 00 00 00 00 00 00 00 00 00 00 00 00 00  ................
	0x0180 00 00 00 00 00 00 00 00 00 00 00 00 00 00 00 00  ................
	0x0190 00 00 00 00 00 00 00 00 00 00 00 00 00 00 00 00  ................
	0x01a0 00 00 00 00 00 00 00 00 00 00 00 00 00 00 00 00  ................
	0x01b0 00 00 00 00 00 00 00 00 00 00 00 00 00 00 00 00  ................
	0x01c0 00 00 00 00 00 00 00 00 00 00 00 00 00 00 00 00  ................
	0x01d0 00 00 00 00 00 00 00 00 00 00 00 00 00 00 00 00  ................
	0x01e0 00 00 00 00 00 00 00 00 00 00 00 00 00 00 00 00  ................
	0x01f0 00 00 00 00 00 00 00 00 00 00 00 00 00 00 00 00  ................
	0x0200 00 00 00 00 00 00 00 00 00 00 00 00 00 00 00 00  ................
	0x0210 00 00 00 00 00 00 00 00 00 00 00 00 00 00 00 00  ................
	0x0220 00 00 00 00 00 00 00 00 00 00 00 00 00 00 00 00  ................
	0x0230 00 00 00 00 00 00 00 00 00 00 00 00 00 00 00 00  ................
	0x0240 00 00 00 00 00 00 00 00 00 00 00 00 00 00 00 00  ................
	0x0250 00 00 00 00 00 00 00 00 00 00 00 00 00 00 00 00  ................
	0x0260 00 00 00 00 00 00 00 00 00 00 00 00 00 00 00 00  ................
	0x0270 00 00 00 00 00 00 00 00 00 00 00 00 00 00 00 00  ................
	0x0280 00 00 00 00 00 00 00 00 00 00 00 00 00 00 00 00  ................
	0x0290 00 00 00 00 00 00 00 00 00 00 00 00 00 00 00 00  ................
	0x02a0 00 00 00 00 00 00 00 00 00 00 00 00 00 00 00 00  ................
	0x02b0 00 00 00 00 00 00 00 00 00 00 00 00 00 00 00 00  ................
	0x02c0 00 00 00 00 00 00 00 00 00 00 00 00 00 00 00 00  ................
	0x02d0 00 00 00 00 00 00 00 00 00 00 00 00 00 00 00 00  ................
	0x02e0 00 00 00 00 00 00 00 00 00 00 00 00 00 00 00 00  ................
	0x02f0 00 00 00 00 00 00 00 00 00 00 00 00 00 00 00 00  ................
	0x0300 00 00 00 00 00 00 00 00 00 00 00 00 00 00 00 00  ................
	0x0310 00 00 00 00 00 00 00 00 00 00 00 00 00 00 00 00  ................
	0x0320 00 00 00 00 00 00 00 00 00 00 00 00 00 00 00 00  ................
	0x0330 00 00 00 00 00 00 00 00 00 00 00 00 00 00 00 00  ................
	0x0340 00 00 00 00 00 00 00 00 00 00 00 00 00 00 00 00  ................
	0x0350 00 00 00 00 00 00 00 00 00 00 00 00 00 00 00 00  ................
	0x0360 00 00 00 00 00 00 00 00 00 00 00 00 00 00 00 00  ................
	0x0370 00 00 00 00 00 00 00 00 00 00 00 00 00 00 00 00  ................
	0x0380 00 00 00 00 00 00 00 00 00 00 00 00 00 00 00 00  ................
	0x0390 00 00 00 00 00 00 00 00 00 00 00 00 00 00 00 00  ................
	0x03a0 00 00 00 00 00 00 00 00 00 00 00 00 00 00 00 00  ................
	0x03b0 00 00 00 00 00 00 00 00 00 00 00 00 00 00 00 00  ................
	0x03c0 00 00 00 00 00 00 00 00 00 00 00 00 00 00 00 00  ................
	0x03d0 00 00 00 00 00 00 00 00 00 00 00 00 00 00 00 00  ................
	0x03e0 00 00 00 00 00 00 00 00 00 00 00 00 00 00 00 00  ................
	0x03f0 00 00 00 00 00 00 00 00 00 00 00 00 00 00 00 00  ................
	0x0400 00 00 00 00 00 00 00 00 00 00 00 00 00 00 00 00  ................
	0x0410 00 00 00 00 00 00 00 00 00 00 00 00 00 00 00 00  ................
	0x0420 00 00 00 00 00 00 00 00 00 00 00 00 00 00 00 00  ................
	0x0430 00 00 00 00 00 00 00 00 00 00 00 00 00 00 00 00  ................
	0x0440 00 00 00 00 00 00 00 00 00 00 00 00 00 00 00 00  ................
	0x0450 00 00 00 00 00 00 00 00 00 00 00 00 00 00 00 00  ................
	0x0460 00 00 00 00 00 00 00 00 00 00 00 00 00 00 00 00  ................
	0x0470 00 00 00 00 00 00 00 00 00 00 00 00 00 00 00 00  ................
	0x0480 00 00 00 00 00 00 00 00 00 00 00 00 00 00 00 00  ................
	0x0490 00 00 00 00 00 00 00 00 00 00 00 00 00 00 00 00  ................
	0x04a0 00 00 00 00 00 00 00 00 00 00 00 00 00 00 00 00  ................
	0x04b0 00 00 00 00 00 00 00 00 00 00 00 00 00 00 00 00  ................
	0x04c0 00 00 00 00 00 00 00 00 00 00 00 00 00 00 00 00  ................
	0x04d0 00 00 00 00 00 00 00 00 00 00 00 00 00 00 00 00  ................
	0x04e0 00 00 00 00 00 00 00 00 00 00 00 00 00 00 00 00  ................
	0x04f0 00 00 00 00 00 00 00 00 00 00 00 00 00 00 00 00  ................
	0x0500 00 00 00 00 00 00 00 00 00 00 00 00 00 00 00 00  ................
	0x0510 00 00 00 00 00 00 00 00 00 00 00 00 00 00 00 00  ................
	0x0520 00 00 00 00 00 00 00 00 00 00 00 00 00 00 00 00  ................
	0x0530 00 00 00 00 00 00 00 00 00 00 00 00 00 00 00 00  ................
	0x0540 00 00 00 00 00 00 00 00 00 00 00 00 00 00 00 00  ................
	0x0550 00 00 00 00 00 00 00 00 00 00 00 00 00 00 00 00  ................
	0x0560 00 00 00 00 00 00 00 00 00 00 00 00 00 00 00 00  ................
	0x0570 00 00 00 00 00 00 00 00 00 00 00 00 00 00 00 00  ................
	0x0580 00 00 00 00 00 00 00 00 00 00 00 00 00 00 00 00  ................
	0x0590 00 00 00 00 00 00 00 00 00 00 00 00 00 00 00 00  ................
	0x05a0 00 00 00 00 00 00 00 00 00 00 00 00 00 00 00 00  ................
	0x05b0 00 00 00 00 00 00 00 00 00 00 00 00 00 00 00 00  ................
	0x05c0 00 00 00 00 00 00 00 00 00 00 00 00 00 00 00 00  ................
	0x05d0 00 00 00 00 00 00 00 00 00 00 00 00 00 00 00 00  ................
	0x05e0 00 00 00 00 00 00 00 00 00 00 00 00 00 00 00 00  ................
	0x05f0 00 00 00 00 00 00 00 00 00 00 00 00 00 00 00 00  ................
	0x0600 00 00 00 00 00 00 00 00 00 00 00 00 00 00 00 00  ................
	0x0610 00 00 00 00 00 00 00 00 00 00 00 00 00 00 00 00  ................
	0x0620 00 00 00 00 00 00 00 00 00 00 00 00 00 00 00 00  ................
	0x0630 00 00 00 00 00 00 00 00 00 00 00 00 00 00 00 00  ................
	0x0640 00 00 00 00 00 00 00 00 00 00 00 00 00 00 00 00  ................
	0x0650 00 00 00 00 00 00 00 00 00 00 00 00 00 00 00 00  ................
	0x0660 00 00 00 00 00 00 00 00 00 00 00 00 00 00 00 00  ................
	0x0670 00 00 00 00 00 00 00 00 00 00 00 00 00 00 00 00  ................
	0x0680 00 00 00 00 00 00 00 00 00 00 00 00 00 00 00 00  ................
	0x0690 00 00 00 00 00 00 00 00 00 00 00 00 00 00 00 00  ................
	0x06a0 00 00 00 00 00 00 00 00 00 00 00 00 00 00 00 00  ................
	0x06b0 00 00 00 00 00 00 00 00 00 00 00 00 00 00 00 00  ................
	0x06c0 00 00 00 00 00 00 00 00 00 00 00 00 00 00 00 00  ................
	0x06d0 00 00 00 00 00 00 00 00 00 00 00 00 00 00 00 00  ................
	0x06e0 00 00 00 00 00 00 00 00 00 00 00 00 00 00 00 00  ................
	0x06f0 00 00 00 00 00 00 00 00 00 00 00 00 00 00 00 00  ................
	0x0700 00 00 00 00 00 00 00 00 00 00 00 00 00 00 00 00  ................
	0x0710 00 00 00 00 00 00 00 00 00 00 00 00 00 00 00 00  ................
	0x0720 00 00 00 00 00 00 00 00 00 00 00 00 00 00 00 00  ................
	0x0730 00 00 00 00 00 00 00 00 00 00 00 00 00 00 00 00  ................
	0x0740 00 00 00 00 00 00 00 00 00 00 00 00 00 00 00 00  ................
	0x0750 00 00 00 00 00 00 00 00 00 00 00 00 00 00 00 00  ................
	0x0760 00 00 00 00 00 00 00 00 00 00 00 00 00 00 00 00  ................
	0x0770 00 00 00 00 00 00 00 00 00 00 00 00 00 00 00 00  ................
	0x0780 00 00 00 00 00 00 00 00 00 00 00 00 00 00 00 00  ................
	0x0790 00 00 00 00 00 00 00 00 00 00 00 00 00 00 00 00  ................
	0x07a0 00 00 00 00 00 00 00 00 00 00 00 00 00 00 00 00  ................
	0x07b0 00 00 00 00 00 00 00 00 00 00 00 00 00 00 00 00  ................
	0x07c0 00 00 00 00 00 00 00 00 00 00 00 00 00 00 00 00  ................
	0x07d0 00 00 00 00 00 00 00 00 00 00 00 00 00 00 00 00  ................
	0x07e0 00 00 00 00 00 00 00 00 00 00 00 00 00 00 00 00  ................
	0x07f0 00 00 00 00 00 00 00 00 00 00 00 00 00 00 00 00  ................
	0x0800 00 00 00 00 00 00 00 00 00 00 00 00 00 00 00 00  ................
	0x0810 00 00 00 00 00 00 00 00 00 00 00 00 00 00 00 00  ................
	0x0820 00 00 00 00 00 00 00 00 00 00 00 00 00 00 00 00  ................
	0x0830 00 00 00 00 00 00 00 00 00 00 00 00 00 00 00 00  ................
	0x0840 00 00 00 00 00 00 00 00 00 00 00 00 00 00 00 00  ................
	0x0850 00 00 00 00 00 00 00 00 00 00 00 00 00 00 00 00  ................
	0x0860 00 00 00 00 00 00 00 00 00 00 00 00 00 00 00 00  ................
	0x0870 00 00 00 00 00 00 00 00 00 00 00 00 00 00 00 00  ................
	0x0880 00 00 00 00 00 00 00 00 00 00 00 00 00 00 00 00  ................
	0x0890 00 00 00 00 00 00 00 00 00 00 00 00 00 00 00 00  ................
	0x08a0 00 00 00 00 00 00 00 00 00 00 00 00 00 00 00 00  ................
	0x08b0 00 00 00 00 00 00 00 00 00 00 00 00 00 00 00 00  ................
	0x08c0 00 00 00 00 00 00 00 00 00 00 00 00 00 00 00 00  ................
	0x08d0 00 00 00 00 00 00 00 00 00 00 00 00 00 00 00 00  ................
	0x08e0 00 00 00 00 00 00 00 00 00 00 00 00 00 00 00 00  ................
	0x08f0 00 00 00 00 00 00 00 00 00 00 00 00 00 00 00 00  ................
	0x0900 00 00 00 00 00 00 00 00 00 00 00 00 00 00 00 00  ................
	0x0910 00 00 00 00 00 00 00 00 00 00 00 00 00 00 00 00  ................
	0x0920 00 00 00 00 00 00 00 00 00 00 00 00 00 00 00 00  ................
	0x0930 00 00 00 00 00 00 00 00 00 00 00 00 00 00 00 00  ................
	0x0940 00 00 00 00 00 00 00 00 00 00 00 00 00 00 00 00  ................
	0x0950 00 00 00 00 00 00 00 00 00 00 00 00 00 00 00 00  ................
	0x0960 00 00 00 00 00 00 00 00 00 00 00 00 00 00 00 00  ................
	0x0970 00 00 00 00 00 00 00 00 00 00 00 00 00 00 00 00  ................
	0x0980 00 00 00 00 00 00 00 00 00 00 00 00 00 00 00 00  ................
	0x0990 00 00 00 00 00 00 00 00 00 00 00 00 00 00 00 00  ................
	0x09a0 00 00 00 00 00 00 00 00 00 00 00 00 00 00 00 00  ................
	0x09b0 00 00 00 00 00 00 00 00 00 00 00 00 00 00 00 00  ................
	0x09c0 00 00 00 00 00 00 00 00 00 00 00 00 00 00 00 00  ................
	0x09d0 00 00 00 00 00 00 00 00 00 00 00 00 00 00 00 00  ................
	0x09e0 00 00 00 00 00 00 00 00 00 00 00 00 00 00 00 00  ................
	0x09f0 00 00 00 00 00 00 00 00 00 00 00 00 00 00 00 00  ................
	0x0a00 00 00 00 00 00 00 00 00 00 00 00 00 00 00 00 00  ................
	0x0a10 00 00 00 00 00 00 00 00 00 00 00 00 00 00 00 00  ................
	0x0a20 00 00 00 00 00 00 00 00 00 00 00 00 00 00 00 00  ................
	0x0a30 00 00 00 00 00 00 00 00 00 00 00 00 00 00 00 00  ................
	0x0a40 00 00 00 00 00 00 00 00 00 00 00 00 00 00 00 00  ................
	0x0a50 00 00 00 00 00 00 00 00 00 00 00 00 00 00 00 00  ................
	0x0a60 00 00 00 00 00 00 00 00 00 00 00 00 00 00 00 00  ................
	0x0a70 00 00 00 00 00 00 00 00 00 00 00 00 00 00 00 00  ................
	0x0a80 00 00 00 00 00 00 00 00 00 00 00 00 00 00 00 00  ................
	0x0a90 00 00 00 00 00 00 00 00 00 00 00 00 00 00 00 00  ................
	0x0aa0 00 00 00 00 00 00 00 00 00 00 00 00 00 00 00 00  ................
	0x0ab0 00 00 00 00 00 00 00 00 00 00 00 00 00 00 00 00  ................
	0x0ac0 00 00 00 00 00 00 00 00 00 00 00 00 00 00 00 00  ................
	0x0ad0 00 00 00 00 00 00 00 00 00 00 00 00 00 00 00 00  ................
	0x0ae0 00 00 00 00 00 00 00 00 00 00 00 00 00 00 00 00  ................
	0x0af0 00 00 00 00 00 00 00 00 00 00 00 00 00 00 00 00  ................
	0x0b00 00 00 00 00 00 00 00 00 00 00 00 00 00 00 00 00  ................
	0x0b10 00 00 00 00 00 00 00 00 00 00 00 00 00 00 00 00  ................
	0x0b20 00 00 00 00 00 00 00 00 00 00 00 00 00 00 00 00  ................
	0x0b30 00 00 00 00 00 00 00 00 00 00 00 00 00 00 00 00  ................
	0x0b40 00 00 00 00 00 00 00 00 00 00 00 00 00 00 00 00  ................
	0x0b50 00 00 00 00 00 00 00 00 00 00 00 00 00 00 00 00  ................
	0x0b60 00 00 00 00 00 00 00 00 00 00 00 00 00 00 00 00  ................
	0x0b70 00 00 00 00 00 00 00 00 00 00 00 00 00 00 00 00  ................
	0x0b80 00 00 00 00 00 00 00 00 00 00 00 00 00 00 00 00  ................
	0x0b90 00 00 00 00 00 00 00 00 00 00 00 00 00 00 00 00  ................
	0x0ba0 00 00 00 00 00 00 00 00 00 00 00 00 00 00 00 00  ................
	0x0bb0 00 00 00 00 00 00 00 00 00 00 00 00 00 00 00 00  ................
	0x0bc0 00 00 00 00 00 00 00 00 00 00 00 00 00 00 00 00  ................
	0x0bd0 00 00 00 00 00 00 00 00 00 00 00 00 00 00 00 00  ................
	0x0be0 00 00 00 00 00 00 00 00 00 00 00 00 00 00 00 00  ................
	0x0bf0 00 00 00 00 00 00 00 00 00 00 00 00 00 00 00 00  ................
	0x0c00 00 00 00 00 00 00 00 00 00 00 00 00 00 00 00 00  ................
	0x0c10 00 00 00 00 00 00 00 00 00 00 00 00 00 00 00 00  ................
	0x0c20 00 00 00 00 00 00 00 00 00 00 00 00 00 00 00 00  ................
	0x0c30 00 00 00 00 00 00 00 00 00 00 00 00 00 00 00 00  ................
	0x0c40 00 00 00 00 00 00 00 00 00 00 00 00 00 00 00 00  ................
	0x0c50 00 00 00 00 00 00 00 00 00 00 00 00 00 00 00 00  ................
	0x0c60 00 00 00 00 00 00 00 00 00 00 00 00 00 00 00 00  ................
	0x0c70 00 00 00 00 00 00 00 00 00 00 00 00 00 00 00 00  ................
	0x0c80 00 00 00 00 00 00 00 00 00 00 00 00 00 00 00 00  ................
	0x0c90 00 00 00 00 00 00 00 00 00 00 00 00 00 00 00 00  ................
	0x0ca0 00 00 00 00 00 00 00 00 00 00 00 00 00 00 00 00  ................
	0x0cb0 00 00 00 00 00 00 00 00 00 00 00 00 00 00 00 00  ................
	0x0cc0 00 00 00 00 00 00 00 00 00 00 00 00 00 00 00 00  ................
	0x0cd0 00 00 00 00 00 00 00 00 00 00 00 00 00 00 00 00  ................
	0x0ce0 00 00 00 00 00 00 00 00 00 00 00 00 00 00 00 00  ................
	0x0cf0 00 00 00 00 00 00 00 00 00 00 00 00 00 00 00 00  ................
	0x0d00 00 00 00 00 00 00 00 00 00 00 00 00 00 00 00 00  ................
	0x0d10 00 00 00 00 00 00 00 00 00 00 00 00 00 00 00 00  ................
	0x0d20 00 00 00 00 00 00 00 00 00 00 00 00 00 00 00 00  ................
	0x0d30 00 00 00 00 00 00 00 00 00 00 00 00 00 00 00 00  ................
	0x0d40 00 00 00 00 00 00 00 00 00 00 00 00 00 00 00 00  ................
	0x0d50 00 00 00 00 00 00 00 00 00 00 00 00 00 00 00 00  ................
	0x0d60 00 00 00 00 00 00 00 00 00 00 00 00 00 00 00 00  ................
	0x0d70 00 00 00 00 00 00 00 00 00 00 00 00 00 00 00 00  ................
	0x0d80 00 00 00 00 00 00 00 00 00 00 00 00 00 00 00 00  ................
	0x0d90 00 00 00 00 00 00 00 00 00 00 00 00 00 00 00 00  ................
	0x0da0 00 00 00 00 00 00 00 00 00 00 00 00 00 00 00 00  ................
	0x0db0 00 00 00 00 00 00 00 00 00 00 00 00 00 00 00 00  ................
	0x0dc0 00 00 00 00 00 00 00 00 00 00 00 00 00 00 00 00  ................
	0x0dd0 00 00 00 00 00 00 00 00 00 00 00 00 00 00 00 00  ................
	0x0de0 00 00 00 00 00 00 00 00 00 00 00 00 00 00 00 00  ................
	0x0df0 00 00 00 00 00 00 00 00 00 00 00 00 00 00 00 00  ................
	0x0e00 00 00 00 00 00 00 00 00 00 00 00 00 00 00 00 00  ................
	0x0e10 00 00 00 00 00 00 00 00 00 00 00 00 00 00 00 00  ................
	0x0e20 00 00 00 00 00 00 00 00 00 00 00 00 00 00 00 00  ................
	0x0e30 00 00 00 00 00 00 00 00 00 00 00 00 00 00 00 00  ................
	0x0e40 00 00 00 00 00 00 00 00 00 00 00 00 00 00 00 00  ................
	0x0e50 00 00 00 00 00 00 00 00 00 00 00 00 00 00 00 00  ................
	0x0e60 00 00 00 00 00 00 00 00 00 00 00 00 00 00 00 00  ................
	0x0e70 00 00 00 00 00 00 00 00 00 00 00 00 00 00 00 00  ................
	0x0e80 00 00 00 00 00 00 00 00 00 00 00 00 00 00 00 00  ................
	0x0e90 00 00 00 00 00 00 00 00 00 00 00 00 00 00 00 00  ................
	0x0ea0 00 00 00 00 00 00 00 00 00 00 00 00 00 00 00 00  ................
	0x0eb0 00 00 00 00 00 00 00 00 00 00 00 00 00 00 00 00  ................
	0x0ec0 00 00 00 00 00 00 00 00 00 00 00 00 00 00 00 00  ................
	0x0ed0 00 00 00 00 00 00 00 00 00 00 00 00 00 00 00 00  ................
	0x0ee0 00 00 00 00 00 00 00 00 00 00 00 00 00 00 00 00  ................
	0x0ef0 00 00 00 00 00 00 00 00 00 00 00 00 00 00 00 00  ................
	0x0f00 00 00 00 00 00 00 00 00 00 00 00 00 00 00 00 00  ................
	0x0f10 00 00 00 00 00 00 00 00 00 00 00 00 00 00 00 00  ................
	0x0f20 00 00 00 00 00 00 00 00 00 00 00 00 00 00 00 00  ................
	0x0f30 00 00 00 00 00 00 00 00 00 00 00 00 00 00 00 00  ................
	0x0f40 00 00 00 00 00 00 00 00 00 00 00 00 00 00 00 00  ................
	0x0f50 00 00 00 00 00 00 00 00 00 00 00 00 00 00 00 00  ................
	0x0f60 00 00 00 00 00 00 00 00 00 00 00 00 00 00 00 00  ................
	0x0f70 00 00 00 00 00 00 00 00 00 00 00 00 00 00 00 00  ................
	0x0f80 00 00 00 00 00 00 00 00 00 00 00 00 00 00 00 00  ................
	0x0f90 00 00 00 00 00 00 00 00 00 00 00 00 00 00 00 00  ................
	0x0fa0 00 00 00 00 00 00 00 00 00 00 00 00 00 00 00 00  ................
	0x0fb0 00 00 00 00 00 00 00 00 00 00 00 00 00 00 00 00  ................
	0x0fc0 00 00 00 00 00 00 00 00 00 00 00 00 00 00 00 00  ................
	0x0fd0 00 00 00 00 00 00 00 00 00 00 00 00 00 00 00 00  ................
	0x0fe0 00 00 00 00 00 00 00 00 00 00 00 00 00 00 00 00  ................
	0x0ff0 00 00 00 00 00 00 00 00 00 00 00 00 00 00 00 00  ................
	0x1000 00 00 00 00 00 00 00 00 00 00 00 00 00 00 00 00  ................
	0x1010 00 00 00 00 00 00 00 00 00 00 00 00 00 00 00 00  ................
	0x1020 00 00 00 00 00 00 00 00 00 00 00 00 00 00 00 00  ................
	0x1030 00 00 00 00 00 00 00 00 00 00 00 00 00 00 00 00  ................
	0x1040 00 00 00 00 00 00 00 00 00 00 00 00 00 00 00 00  ................
	0x1050 00 00 00 00 00 00 00 00 00 00 00 00 00 00 00 00  ................
	0x1060 00 00 00 00 00 00 00 00 00 00 00 00 00 00 00 00  ................
	0x1070 00 00 00 00 00 00 00 00 00 00 00 00 00 00 00 00  ................
	0x1080 00 00 00 00 00 00 00 00 00 00 00 00 00 00 00 00  ................
	0x1090 00 00 00 00 00 00 00 00 00 00 00 00 00 00 00 00  ................
	0x10a0 00 00 00 00 00 00 00 00 00 00 00 00 00 00 00 00  ................
	0x10b0 00 00 00 00 00 00 00 00 00 00 00 00 00 00 00 00  ................
	0x10c0 00 00 00 00 00 00 00 00 00 00 00 00 00 00 00 00  ................
	0x10d0 00 00 00 00 00 00 00 00 00 00 00 00 00 00 00 00  ................
	0x10e0 00 00 00 00 00 00 00 00 00 00 00 00 00 00 00 00  ................
	0x10f0 00 00 00 00 00 00 00 00 00 00 00 00 00 00 00 00  ................
	0x1100 00 00 00 00 00 00 00 00 00 00 00 00 00 00 00 00  ................
	0x1110 00 00 00 00 00 00 00 00 00 00 00 00 00 00 00 00  ................
	0x1120 00 00 00 00 00 00 00 00 00 00 00 00 00 00 00 00  ................
	0x1130 00 00 00 00 00 00 00 00 00 00 00 00 00 00 00 00  ................
	0x1140 00 00 00 00 00 00 00 00 00 00 00 00 00 00 00 00  ................
	0x1150 00 00 00 00 00 00 00 00 00 00 00 00 00 00 00 00  ................
	0x1160 00 00 00 00 00 00 00 00 00 00 00 00 00 00 00 00  ................
	0x1170 00 00 00 00 00 00 00 00 00 00 00 00 00 00 00 00  ................
	0x1180 00 00 00 00 00 00 00 00 00 00 00 00 00 00 00 00  ................
	0x1190 00 00 00 00 00 00 00 00 00 00 00 00 00 00 00 00  ................
	0x11a0 00 00 00 00 00 00 00 00 00 00 00 00 00 00 00 00  ................
	0x11b0 00 00 00 00 00 00 00 00 00 00 00 00 00 00 00 00  ................
	0x11c0 00 00 00 00 00 00 00 00 00 00 00 00 00 00 00 00  ................
	0x11d0 00 00 00 00 00 00 00 00 00 00 00 00 00 00 00 00  ................
	0x11e0 00 00 00 00 00 00 00 00 00 00 00 00 00 00 00 00  ................
	0x11f0 00 00 00 00 00 00 00 00 00 00 00 00 00 00 00 00  ................
	0x1200 00 00 00 00 00 00 00 00 00 00 00 00 00 00 00 00  ................
	0x1210 00 00 00 00 00 00 00 00 00 00 00 00 00 00 00 00  ................
	0x1220 00 00 00 00 00 00 00 00 00 00 00 00 00 00 00 00  ................
	0x1230 00 00 00 00 00 00 00 00 00 00 00 00 00 00 00 00  ................
	0x1240 00 00 00 00 00 00 00 00 00 00 00 00 00 00 00 00  ................
	0x1250 00 00 00 00 00 00 00 00 00 00 00 00 00 00 00 00  ................
	0x1260 00 00 00 00 00 00 00 00 00 00 00 00 00 00 00 00  ................
	0x1270 00 00 00 00 00 00 00 00 00 00 00 00 00 00 00 00  ................
	0x1280 00 00 00 00 00 00 00 00 00 00 00 00 00 00 00 00  ................
	0x1290 00 00 00 00 00 00 00 00 00 00 00 00 00 00 00 00  ................
	0x12a0 00 00 00 00 00 00 00 00 00 00 00 00 00 00 00 00  ................
	0x12b0 00 00 00 00 00 00 00 00 00 00 00 00 00 00 00 00  ................
	0x12c0 00 00 00 00 00 00 00 00 00 00 00 00 00 00 00 00  ................
	0x12d0 00 00 00 00 00 00 00 00 00 00 00 00 00 00 00 00  ................
	0x12e0 00 00 00 00 00 00 00 00 00 00 00 00 00 00 00 00  ................
	0x12f0 00 00 00 00 00 00 00 00 00 00 00 00 00 00 00 00  ................
	0x1300 00 00 00 00 00 00 00 00 00 00 00 00 00 00 00 00  ................
	0x1310 00 00 00 00 00 00 00 00 00 00 00 00 00 00 00 00  ................
	0x1320 00 00 00 00 00 00 00 00 00 00 00 00 00 00 00 00  ................
	0x1330 00 00 00 00 00 00 00 00 00 00 00 00 00 00 00 00  ................
	0x1340 00 00 00 00 00 00 00 00 00 00 00 00 00 00 00 00  ................
	0x1350 00 00 00 00 00 00 00 00 00 00 00 00 00 00 00 00  ................
	0x1360 00 00 00 00 00 00 00 00 00 00 00 00 00 00 00 00  ................
	0x1370 00 00 00 00 00 00 00 00 00 00 00 00 00 00 00 00  ................
	0x1380 00 00 00 00 00 00 00 00 00 00 00 00 00 00 00 00  ................
	0x1390 00 00 00 00 00 00 00 00 00 00 00 00 00 00 00 00  ................
	0x13a0 00 00 00 00 00 00 00 00 00 00 00 00 00 00 00 00  ................
	0x13b0 00 00 00 00 00 00 00 00 00 00 00 00 00 00 00 00  ................
	0x13c0 00 00 00 00 00 00 00 00 00 00 00 00 00 00 00 00  ................
	0x13d0 00 00 00 00 00 00 00 00 00 00 00 00 00 00 00 00  ................
	0x13e0 00 00 00 00 00 00 00 00 00 00 00 00 00 00 00 00  ................
	0x13f0 00 00 00 00 00 00 00 00 00 00 00 00 00 00 00 00  ................
	0x1400 00 00 00 00 00 00 00 00 00 00 00 00 00 00 00 00  ................
	0x1410 00 00 00 00 00 00 00 00 00 00 00 00 00 00 00 00  ................
	0x1420 00 00 00 00 00 00 00 00 00 00 00 00 00 00 00 00  ................
	0x1430 00 00 00 00 00 00 00 00 00 00 00 00 00 00 00 00  ................
	0x1440 00 00 00 00 00 00 00 00 00 00 00 00 00 00 00 00  ................
	0x1450 00 00 00 00 00 00 00 00 00 00 00 00 00 00 00 00  ................
	0x1460 00 00 00 00 00 00 00 00 00 00 00 00 00 00 00 00  ................
	0x1470 00 00 00 00 00 00 00 00 00 00 00 00 00 00 00 00  ................
	0x1480 00 00 00 00 00 00 00 00 00 00 00 00 00 00 00 00  ................
	0x1490 00 00 00 00 00 00 00 00 00 00 00 00 00 00 00 00  ................
	0x14a0 00 00 00 00 00 00 00 00 00 00 00 00 00 00 00 00  ................
	0x14b0 00 00 00 00 00 00 00 00 00 00 00 00 00 00 00 00  ................
	0x14c0 00 00 00 00 00 00 00 00 00 00 00 00 00 00 00 00  ................
	0x14d0 00 00 00 00 00 00 00 00 00 00 00 00 00 00 00 00  ................
	0x14e0 00 00 00 00 00 00 00 00 00 00 00 00 00 00 00 00  ................
	0x14f0 00 00 00 00 00 00 00 00 00 00 00 00 00 00 00 00  ................
	0x1500 00 00 00 00 00 00 00 00 00 00 00 00 00 00 00 00  ................
	0x1510 00 00 00 00 00 00 00 00 00 00 00 00 00 00 00 00  ................
	0x1520 00 00 00 00 00 00 00 00 00 00 00 00 00 00 00 00  ................
	0x1530 00 00 00 00 00 00 00 00 00 00 00 00 00 00 00 00  ................
	0x1540 00 00 00 00 00 00 00 00 00 00 00 00 00 00 00 00  ................
	0x1550 00 00 00 00 00 00 00 00 00 00 00 00 00 00 00 00  ................
	0x1560 00 00 00 00 00 00 00 00 00 00 00 00 00 00 00 00  ................
	0x1570 00 00 00 00 00 00 00 00 00 00 00 00 00 00 00 00  ................
	0x1580 00 00 00 00 00 00 00 00 00 00 00 00 00 00 00 00  ................
	0x1590 00 00 00 00 00 00 00 00 00 00 00 00 00 00 00 00  ................
	0x15a0 00 00 00 00 00 00 00 00 00 00 00 00 00 00 00 00  ................
	0x15b0 00 00 00 00 00 00 00 00 00 00 00 00 00 00 00 00  ................
	0x15c0 00 00 00 00 00 00 00 00 00 00 00 00 00 00 00 00  ................
	0x15d0 00 00 00 00 00 00 00 00 00 00 00 00 00 00 00 00  ................
	0x15e0 00 00 00 00 00 00 00 00 00 00 00 00 00 00 00 00  ................
	0x15f0 00 00 00 00 00 00 00 00 00 00 00 00 00 00 00 00  ................
	0x1600 00 00 00 00 00 00 00 00 00 00 00 00 00 00 00 00  ................
	0x1610 00 00 00 00 00 00 00 00 00 00 00 00 00 00 00 00  ................
	0x1620 00 00 00 00 00 00 00 00 00 00 00 00 00 00 00 00  ................
	0x1630 00 00 00 00 00 00 00 00 00 00 00 00 00 00 00 00  ................
	0x1640 00 00 00 00 00 00 00 00 00 00 00 00 00 00 00 00  ................
	0x1650 00 00 00 00 00 00 00 00 00 00 00 00 00 00 00 00  ................
	0x1660 00 00 00 00 00 00 00 00 00 00 00 00 00 00 00 00  ................
	0x1670 00 00 00 00 00 00 00 00 00 00 00 00 00 00 00 00  ................
	0x1680 00 00 00 00 00 00 00 00 00 00 00 00 00 00 00 00  ................
	0x1690 00 00 00 00 00 00 00 00 00 00 00 00 00 00 00 00  ................
	0x16a0 00 00 00 00 00 00 00 00 00 00 00 00 00 00 00 00  ................
	0x16b0 00 00 00 00 00 00 00 00 00 00 00 00 00 00 00 00  ................
	0x16c0 00 00 00 00 00 00 00 00 00 00 00 00 00 00 00 00  ................
	0x16d0 00 00 00 00 00 00 00 00 00 00 00 00 00 00 00 00  ................
	0x16e0 00 00 00 00 00 00 00 00 00 00 00 00 00 00 00 00  ................
	0x16f0 00 00 00 00 00 00 00 00 00 00 00 00 00 00 00 00  ................
	0x1700 00 00 00 00 00 00 00 00 00 00 00 00 00 00 00 00  ................
	0x1710 00 00 00 00 00 00 00 00 00 00 00 00 00 00 00 00  ................
	0x1720 00 00 00 00 00 00 00 00 00 00 00 00 00 00 00 00  ................
	0x1730 00 00 00 00 00 00 00 00 00 00 00 00 00 00 00 00  ................
	0x1740 00 00 00 00 00 00 00 00 00 00 00 00 00 00 00 00  ................
	0x1750 00 00 00 00 00 00 00 00 00 00 00 00 00 00 00 00  ................
	0x1760 00 00 00 00 00 00 00 00 00 00 00 00 00 00 00 00  ................
	0x1770 00 00 00 00 00 00 00 00 00 00 00 00 00 00 00 00  ................
	0x1780 00 00 00 00 00 00 00 00 00 00 00 00 00 00 00 00  ................
	0x1790 00 00 00 00 00 00 00 00 00 00 00 00 00 00 00 00  ................
	0x17a0 00 00 00 00 00 00 00 00 00 00 00 00 00 00 00 00  ................
	0x17b0 00 00 00 00 00 00 00 00 00 00 00 00 00 00 00 00  ................
	0x17c0 00 00 00 00 00 00 00 00 00 00 00 00 00 00 00 00  ................
	0x17d0 00 00 00 00 00 00 00 00 00 00 00 00 00 00 00 00  ................
	0x17e0 00 00 00 00 00 00 00 00 00 00 00 00 00 00 00 00  ................
	0x17f0 00 00 00 00 00 00 00 00 00 00 00 00 00 00 00 00  ................
	0x1800 00 00 00 00 00 00 00 00 00 00 00 00 00 00 00 00  ................
	0x1810 00 00 00 00 00 00 00 00 00 00 00 00 00 00 00 00  ................
	0x1820 00 00 00 00 00 00 00 00 00 00 00 00 00 00 00 00  ................
	0x1830 00 00 00 00 00 00 00 00 00 00 00 00 00 00 00 00  ................
	0x1840 00 00 00 00 00 00 00 00 00 00 00 00 00 00 00 00  ................
	0x1850 00 00 00 00 00 00 00 00 00 00 00 00 00 00 00 00  ................
	0x1860 00 00 00 00 00 00 00 00 00 00 00 00 00 00 00 00  ................
	0x1870 00 00 00 00 00 00 00 00 00 00 00 00 00 00 00 00  ................
	0x1880 00 00 00 00 00 00 00 00 00 00 00 00 00 00 00 00  ................
	0x1890 00 00 00 00 00 00 00 00 00 00 00 00 00 00 00 00  ................
	0x18a0 00 00 00 00 00 00 00 00 00 00 00 00 00 00 00 00  ................
	0x18b0 00 00 00 00 00 00 00 00 00 00 00 00 00 00 00 00  ................
	0x18c0 00 00 00 00 00 00 00 00 00 00 00 00 00 00 00 00  ................
	0x18d0 00 00 00 00 00 00 00 00 00 00 00 00 00 00 00 00  ................
	0x18e0 00 00 00 00 00 00 00 00 00 00 00 00 00 00 00 00  ................
	0x18f0 00 00 00 00 00 00 00 00 00 00 00 00 00 00 00 00  ................
	0x1900 00 00 00 00 00 00 00 00 00 00 00 00 00 00 00 00  ................
	0x1910 00 00 00 00 00 00 00 00 00 00 00 00 00 00 00 00  ................
	0x1920 00 00 00 00 00 00 00 00 00 00 00 00 00 00 00 00  ................
	0x1930 00 00 00 00 00 00 00 00 00 00 00 00 00 00 00 00  ................
	0x1940 00 00 00 00 00 00 00 00 00 00 00 00 00 00 00 00  ................
	0x1950 00 00 00 00 00 00 00 00 00 00 00 00 00 00 00 00  ................
	0x1960 00 00 00 00 00 00 00 00 00 00 00 00 00 00 00 00  ................
	0x1970 00 00 00 00 00 00 00 00 00 00 00 00 00 00 00 00  ................
	0x1980 00 00 00 00 00 00 00 00 00 00 00 00 00 00 00 00  ................
	0x1990 00 00 00 00 00 00 00 00 00 00 00 00 00 00 00 00  ................
	0x19a0 00 00 00 00 00 00 00 00 00 00 00 00 00 00 00 00  ................
	0x19b0 00 00 00 00 00 00 00 00 00 00 00 00 00 00 00 00  ................
	0x19c0 00 00 00 00 00 00 00 00 00 00 00 00 00 00 00 00  ................
	0x19d0 00 00 00 00 00 00 00 00 00 00 00 00 00 00 00 00  ................
	0x19e0 00 00 00 00 00 00 00 00 00 00 00 00 00 00 00 00  ................
	0x19f0 00 00 00 00 00 00 00 00 00 00 00 00 00 00 00 00  ................
	0x1a00 00 00 00 00 00 00 00 00 00 00 00 00 00 00 00 00  ................
	0x1a10 00 00 00 00 00 00 00 00 00 00 00 00 00 00 00 00  ................
	0x1a20 00 00 00 00 00 00 00 00 00 00 00 00 00 00 00 00  ................
	0x1a30 00 00 00 00 00 00 00 00 00 00 00 00 00 00 00 00  ................
	0x1a40 00 00 00 00 00 00 00 00 00 00 00 00 00 00 00 00  ................
	0x1a50 00 00 00 00 00 00 00 00 00 00 00 00 00 00 00 00  ................
	0x1a60 00 00 00 00 00 00 00 00 00 00 00 00 00 00 00 00  ................
	0x1a70 00 00 00 00 00 00 00 00 00 00 00 00 00 00 00 00  ................
	0x1a80 00 00 00 00 00 00 00 00 00 00 00 00 00 00 00 00  ................
	0x1a90 00 00 00 00 00 00 00 00 00 00 00 00 00 00 00 00  ................
	0x1aa0 00 00 00 00 00 00 00 00 00 00 00 00 00 00 00 00  ................
	0x1ab0 00 00 00 00 00 00 00 00 00 00 00 00 00 00 00 00  ................
	0x1ac0 00 00 00 00 00 00 00 00 00 00 00 00 00 00 00 00  ................
	0x1ad0 00 00 00 00 00 00 00 00 00 00 00 00 00 00 00 00  ................
	0x1ae0 00 00 00 00 00 00 00 00 00 00 00 00 00 00 00 00  ................
	0x1af0 00 00 00 00 00 00 00 00 00 00 00 00 00 00 00 00  ................
	0x1b00 00 00 00 00 00 00 00 00 00 00 00 00 00 00 00 00  ................
	0x1b10 00 00 00 00 00 00 00 00 00 00 00 00 00 00 00 00  ................
	0x1b20 00 00 00 00 00 00 00 00 00 00 00 00 00 00 00 00  ................
	0x1b30 00 00 00 00 00 00 00 00 00 00 00 00 00 00 00 00  ................
	0x1b40 00 00 00 00 00 00 00 00 00 00 00 00 00 00 00 00  ................
	0x1b50 00 00 00 00 00 00 00 00 00 00 00 00 00 00 00 00  ................
	0x1b60 00 00 00 00 00 00 00 00 00 00 00 00 00 00 00 00  ................
	0x1b70 00 00 00 00 00 00 00 00 00 00 00 00 00 00 00 00  ................
	0x1b80 00 00 00 00 00 00 00 00 00 00 00 00 00 00 00 00  ................
	0x1b90 00 00 00 00 00 00 00 00 00 00 00 00 00 00 00 00  ................
	0x1ba0 00 00 00 00 00 00 00 00 00 00 00 00 00 00 00 00  ................
	0x1bb0 00 00 00 00 00 00 00 00 00 00 00 00 00 00 00 00  ................
	0x1bc0 00 00 00 00 00 00 00 00 00 00 00 00 00 00 00 00  ................
	0x1bd0 00 00 00 00 00 00 00 00 00 00 00 00 00 00 00 00  ................
	0x1be0 00 00 00 00 00 00 00 00 00 00 00 00 00 00 00 00  ................
	0x1bf0 00 00 00 00 00 00 00 00 00 00 00 00 00 00 00 00  ................
	0x1c00 00 00 00 00 00 00 00 00 00 00 00 00 00 00 00 00  ................
	0x1c10 00 00 00 00 00 00 00 00 00 00 00 00 00 00 00 00  ................
	0x1c20 00 00 00 00 00 00 00 00 00 00 00 00 00 00 00 00  ................
	0x1c30 00 00 00 00 00 00 00 00 00 00 00 00 00 00 00 00  ................
	0x1c40 00 00 00 00 00 00 00 00 00 00 00 00 00 00 00 00  ................
	0x1c50 00 00 00 00 00 00 00 00 00 00 00 00 00 00 00 00  ................
	0x1c60 00 00 00 00 00 00 00 00 00 00 00 00 00 00 00 00  ................
	0x1c70 00 00 00 00 00 00 00 00 00 00 00 00 00 00 00 00  ................
	0x1c80 00 00 00 00 00 00 00 00 00 00 00 00 00 00 00 00  ................
	0x1c90 00 00 00 00 00 00 00 00 00 00 00 00 00 00 00 00  ................
	0x1ca0 00 00 00 00 00 00 00 00 00 00 00 00 00 00 00 00  ................
	0x1cb0 00 00 00 00 00 00 00 00 00 00 00 00 00 00 00 00  ................
	0x1cc0 00 00 00 00 00 00 00 00 00 00 00 00 00 00 00 00  ................
	0x1cd0 00 00 00 00 00 00 00 00 00 00 00 00 00 00 00 00  ................
	0x1ce0 00 00 00 00 00 00 00 00 00 00 00 00 00 00 00 00  ................
	0x1cf0 00 00 00 00 00 00 00 00 00 00 00 00 00 00 00 00  ................
	0x1d00 00 00 00 00 00 00 00 00 00 00 00 00 00 00 00 00  ................
	0x1d10 00 00 00 00 00 00 00 00 00 00 00 00 00 00 00 00  ................
	0x1d20 00 00 00 00 00 00 00 00 00 00 00 00 00 00 00 00  ................
	0x1d30 00 00 00 00 00 00 00 00 00 00 00 00 00 00 00 00  ................
	0x1d40 00 00 00 00 00 00 00 00 00 00 00 00 00 00 00 00  ................
	0x1d50 00 00 00 00 00 00 00 00 00 00 00 00 00 00 00 00  ................
	0x1d60 00 00 00 00 00 00 00 00 00 00 00 00 00 00 00 00  ................
	0x1d70 00 00 00 00 00 00 00 00 00 00 00 00 00 00 00 00  ................
	0x1d80 00 00 00 00 00 00 00 00 00 00 00 00 00 00 00 00  ................
	0x1d90 00 00 00 00 00 00 00 00 00 00 00 00 00 00 00 00  ................
	0x1da0 00 00 00 00 00 00 00 00 00 00 00 00 00 00 00 00  ................
	0x1db0 00 00 00 00 00 00 00 00 00 00 00 00 00 00 00 00  ................
	0x1dc0 00 00 00 00 00 00 00 00 00 00 00 00 00 00 00 00  ................
	0x1dd0 00 00 00 00 00 00 00 00 00 00 00 00 00 00 00 00  ................
	0x1de0 00 00 00 00 00 00 00 00 00 00 00 00 00 00 00 00  ................
	0x1df0 00 00 00 00 00 00 00 00 00 00 00 00 00 00 00 00  ................
	0x1e00 00 00 00 00 00 00 00 00 00 00 00 00 00 00 00 00  ................
	0x1e10 00 00 00 00 00 00 00 00 00 00 00 00 00 00 00 00  ................
	0x1e20 00 00 00 00 00 00 00 00 00 00 00 00 00 00 00 00  ................
	0x1e30 00 00 00 00 00 00 00 00 00 00 00 00 00 00 00 00  ................
	0x1e40 00 00 00 00 00 00 00 00 00 00 00 00 00 00 00 00  ................
	0x1e50 00 00 00 00 00 00 00 00 00 00 00 00 00 00 00 00  ................
	0x1e60 00 00 00 00 00 00 00 00 00 00 00 00 00 00 00 00  ................
	0x1e70 00 00 00 00 00 00 00 00 00 00 00 00 00 00 00 00  ................
	0x1e80 00 00 00 00 00 00 00 00 00 00 00 00 00 00 00 00  ................
	0x1e90 00 00 00 00 00 00 00 00 00 00 00 00 00 00 00 00  ................
	0x1ea0 00 00 00 00 00 00 00 00 00 00 00 00 00 00 00 00  ................
	0x1eb0 00 00 00 00 00 00 00 00 00 00 00 00 00 00 00 00  ................
	0x1ec0 00 00 00 00 00 00 00 00 00 00 00 00 00 00 00 00  ................
	0x1ed0 00 00 00 00 00 00 00 00 00 00 00 00 00 00 00 00  ................
	0x1ee0 00 00 00 00 00 00 00 00 00 00 00 00 00 00 00 00  ................
	0x1ef0 00 00 00 00 00 00 00 00 00 00 00 00 00 00 00 00  ................
	0x1f00 00 00 00 00 00 00 00 00 00 00 00 00 00 00 00 00  ................
	0x1f10 00 00 00 00 00 00 00 00 00 00 00 00 00 00 00 00  ................
	0x1f20 00 00 00 00 00 00 00 00 00 00 00 00 00 00 00 00  ................
	0x1f30 00 00 00 00 00 00 00 00 00 00 00 00 00 00 00 00  ................
	0x1f40 00 00 00 00 00 00 00 00 00 00 00 00 00 00 00 00  ................
	0x1f50 00 00 00 00 00 00 00 00 00 00 00 00 00 00 00 00  ................
	0x1f60 00 00 00 00 00 00 00 00 00 00 00 00 00 00 00 00  ................
	0x1f70 00 00 00 00 00 00 00 00 00 00 00 00 00 00 00 00  ................
	0x1f80 00 00 00 00 00 00 00 00 00 00 00 00 00 00 00 00  ................
	0x1f90 00 00 00 00 00 00 00 00 00 00 00 00 00 00 00 00  ................
	0x1fa0 00 00 00 00 00 00 00 00 00 00 00 00 00 00 00 00  ................
	0x1fb0 00 00 00 00 00 00 00 00 00 00 00 00 00 00 00 00  ................
	0x1fc0 00 00 00 00 00 00 00 00 00 00 00 00 00 00 00 00  ................
	0x1fd0 00 00 00 00 00 00 00 00 00 00 00 00 00 00 00 00  ................
	0x1fe0 00 00 00 00 00 00 00 00 00 00 00 00 00 00 00 00  ................
	0x1ff0 00 00 00 00 00 00 00 00 00 00 00 00 00 00 00 00  ................
	0x2000 00 00 00 00 00 00 00 00 00 00 00 00 00 00 00 00  ................
	0x2010 00 00 00 00 00 00 00 00 00 00 00 00 00 00 00 00  ................
	0x2020 00 00 00 00 00 00 00 00 00 00 00 00 00 00 00 00  ................
	0x2030 00 00 00 00 00 00 00 00 00 00 00 00 00 00 00 00  ................
	0x2040 00 00 00 00 00 00 00 00 00 00 00 00 00 00 00 00  ................
	0x2050 00 00 00 00 00 00 00 00 00 00 00 00 00 00 00 00  ................
	0x2060 00 00 00 00 00 00 00 00 00 00 00 00 00 00 00 00  ................
	0x2070 00 00 00 00 00 00 00 00 00 00 00 00 00 00 00 00  ................
	0x2080 00 00 00 00 00 00 00 00 00 00 00 00 00 00 00 00  ................
	0x2090 00 00 00 00 00 00 00 00 00 00 00 00 00 00 00 00  ................
	0x20a0 00 00 00 00 00 00 00 00 00 00 00 00 00 00 00 00  ................
	0x20b0 00 00 00 00 00 00 00 00 00 00 00 00 00 00 00 00  ................
	0x20c0 00 00 00 00 00 00 00 00 00 00 00 00 00 00 00 00  ................
	0x20d0 00 00 00 00 00 00 00 00 00 00 00 00 00 00 00 00  ................
	0x20e0 00 00 00 00 00 00 00 00 00 00 00 00 00 00 00 00  ................
	0x20f0 00 00 00 00 00 00 00 00 00 00 00 00 00 00 00 00  ................
	0x2100 00 00 00 00 00 00 00 00 00 00 00 00 00 00 00 00  ................
	0x2110 00 00 00 00 00 00 00 00 00 00 00 00 00 00 00 00  ................
	0x2120 00 00 00 00 00 00 00 00 00 00 00 00 00 00 00 00  ................
	0x2130 00 00 00 00 00 00 00 00 00 00 00 00 00 00 00 00  ................
	0x2140 00 00 00 00 00 00 00 00 00 00 00 00 00 00 00 00  ................
	0x2150 00 00 00 00 00 00 00 00 00 00 00 00 00 00 00 00  ................
	0x2160 00 00 00 00 00 00 00 00 00 00 00 00 00 00 00 00  ................
	0x2170 00 00 00 00 00 00 00 00 00 00 00 00 00 00 00 00  ................
	0x2180 00 00 00 00 00 00 00 00 00 00 00 00 00 00 00 00  ................
	0x2190 00 00 00 00 00 00 00 00 00 00 00 00 00 00 00 00  ................
	0x21a0 00 00 00 00 00 00 00 00 00 00 00 00 00 00 00 00  ................
	0x21b0 00 00 00 00 00 00 00 00 00 00 00 00 00 00 00 00  ................
	0x21c0 00 00 00 00 00 00 00 00 00 00 00 00 00 00 00 00  ................
	0x21d0 00 00 00 00 00 00 00 00 00 00 00 00 00 00 00 00  ................
	0x21e0 00 00 00 00 00 00 00 00 00 00 00 00 00 00 00 00  ................
	0x21f0 00 00 00 00 00 00 00 00 00 00 00 00 00 00 00 00  ................
	0x2200 00 00 00 00 00 00 00 00 00 00 00 00 00 00 00 00  ................
	0x2210 00 00 00 00 00 00 00 00 00 00 00 00 00 00 00 00  ................
	0x2220 00 00 00 00 00 00 00 00 00 00 00 00 00 00 00 00  ................
	0x2230 00 00 00 00 00 00 00 00 00 00 00 00 00 00 00 00  ................
	0x2240 00 00 00 00 00 00 00 00 00 00 00 00 00 00 00 00  ................
	0x2250 00 00 00 00 00 00 00 00 00 00 00 00 00 00 00 00  ................
	0x2260 00 00 00 00 00 00 00 00 00 00 00 00 00 00 00 00  ................
	0x2270 00 00 00 00 00 00 00 00 00 00 00 00 00 00 00 00  ................
	0x2280 00 00 00 00 00 00 00 00 00 00 00 00 00 00 00 00  ................
	0x2290 00 00 00 00 00 00 00 00 00 00 00 00 00 00 00 00  ................
	0x22a0 00 00 00 00 00 00 00 00 00 00 00 00 00 00 00 00  ................
	0x22b0 00 00 00 00 00 00 00 00 00 00 00 00 00 00 00 00  ................
	0x22c0 00 00 00 00 00 00 00 00 00 00 00 00 00 00 00 00  ................
	0x22d0 00 00 00 00 00 00 00 00 00 00 00 00 00 00 00 00  ................
	0x22e0 00 00 00 00 00 00 00 00 00 00 00 00 00 00 00 00  ................
	0x22f0 00 00 00 00 00 00 00 00 00 00 00 00 00 00 00 00  ................
	0x2300 00 00 00 00 00 00 00 00 00 00 00 00 00 00 00 00  ................
	0x2310 00 00 00 00 00 00 00 00 00 00 00 00 00 00 00 00  ................
	0x2320 00 00 00 00 00 00 00 00 00 00 00 00 00 00 00 00  ................
	0x2330 00 00 00 00 00 00 00 00 00 00 00 00 00 00 00 00  ................
	0x2340 00 00 00 00 00 00 00 00 00 00 00 00 00 00 00 00  ................
	0x2350 00 00 00 00 00 00 00 00 00 00 00 00 00 00 00 00  ................
	0x2360 00 00 00 00 00 00 00 00 00 00 00 00 00 00 00 00  ................
	0x2370 00 00 00 00 00 00 00 00 00 00 00 00 00 00 00 00  ................
	0x2380 00 00 00 00 00 00 00 00 00 00 00 00 00 00 00 00  ................
	0x2390 00 00 00 00 00 00 00 00 00 00 00 00 00 00 00 00  ................
	0x23a0 00 00 00 00 00 00 00 00 00 00 00 00 00 00 00 00  ................
	0x23b0 00 00 00 00 00 00 00 00 00 00 00 00 00 00 00 00  ................
	0x23c0 00 00 00 00 00 00 00 00 00 00 00 00 00 00 00 00  ................
	0x23d0 00 00 00 00 00 00 00 00 00 00 00 00 00 00 00 00  ................
	0x23e0 00 00 00 00 00 00 00 00 00 00 00 00 00 00 00 00  ................
	0x23f0 00 00 00 00 00 00 00 00 00 00 00 00 00 00 00 00  ................
	0x2400 00 00 00 00 00 00 00 00 00 00 00 00 00 00 00 00  ................
	0x2410 00 00 00 00 00 00 00 00 00 00 00 00 00 00 00 00  ................
	0x2420 00 00 00 00 00 00 00 00 00 00 00 00 00 00 00 00  ................
	0x2430 00 00 00 00 00 00 00 00 00 00 00 00 00 00 00 00  ................
	0x2440 00 00 00 00 00 00 00 00 00 00 00 00 00 00 00 00  ................
	0x2450 00 00 00 00 00 00 00 00 00 00 00 00 00 00 00 00  ................
	0x2460 00 00 00 00 00 00 00 00 00 00 00 00 00 00 00 00  ................
	0x2470 00 00 00 00 00 00 00 00 00 00 00 00 00 00 00 00  ................
	0x2480 00 00 00 00 00 00 00 00 00 00 00 00 00 00 00 00  ................
	0x2490 00 00 00 00 00 00 00 00 00 00 00 00 00 00 00 00  ................
	0x24a0 00 00 00 00 00 00 00 00 00 00 00 00 00 00 00 00  ................
	0x24b0 00 00 00 00 00 00 00 00 00 00 00 00 00 00 00 00  ................
	0x24c0 00 00 00 00 00 00 00 00 00 00 00 00 00 00 00 00  ................
	0x24d0 00 00 00 00 00 00 00 00 00 00 00 00 00 00 00 00  ................
	0x24e0 00 00 00 00 00 00 00 00 00 00 00 00 00 00 00 00  ................
	0x24f0 00 00 00 00 00 00 00 00 00 00 00 00 00 00 00 00  ................
	0x2500 00 00 00 00 00 00 00 00 00 00 00 00 00 00 00 00  ................
	0x2510 00 00 00 00 00 00 00 00 00 00 00 00 00 00 00 00  ................
	0x2520 00 00 00 00 00 00 00 00 00 00 00 00 00 00 00 00  ................
	0x2530 00 00 00 00 00 00 00 00 00 00 00 00 00 00 00 00  ................
	0x2540 00 00 00 00 00 00 00 00 00 00 00 00 00 00 00 00  ................
	0x2550 00 00 00 00 00 00 00 00 00 00 00 00 00 00 00 00  ................
	0x2560 00 00 00 00 00 00 00 00 00 00 00 00 00 00 00 00  ................
	0x2570 00 00 00 00 00 00 00 00 00 00 00 00 00 00 00 00  ................
	0x2580 00 00 00 00 00 00 00 00 00 00 00 00 00 00 00 00  ................
	0x2590 00 00 00 00 00 00 00 00 00 00 00 00 00 00 00 00  ................
	0x25a0 00 00 00 00 00 00 00 00 00 00 00 00 00 00 00 00  ................
	0x25b0 00 00 00 00 00 00 00 00 00 00 00 00 00 00 00 00  ................
	0x25c0 00 00 00 00 00 00 00 00 00 00 00 00 00 00 00 00  ................
	0x25d0 00 00 00 00 00 00 00 00 00 00 00 00 00 00 00 00  ................
	0x25e0 00 00 00 00 00 00 00 00 00 00 00 00 00 00 00 00  ................
	0x25f0 00 00 00 00 00 00 00 00 00 00 00 00 00 00 00 00  ................
	0x2600 00 00 00 00 00 00 00 00 00 00 00 00 00 00 00 00  ................
	0x2610 00 00 00 00 00 00 00 00 00 00 00 00 00 00 00 00  ................
	0x2620 00 00 00 00 00 00 00 00 00 00 00 00 00 00 00 00  ................
	0x2630 00 00 00 00 00 00 00 00 00 00 00 00 00 00 00 00  ................
	0x2640 00 00 00 00 00 00 00 00 00 00 00 00 00 00 00 00  ................
	0x2650 00 00 00 00 00 00 00 00 00 00 00 00 00 00 00 00  ................
	0x2660 00 00 00 00 00 00 00 00 00 00 00 00 00 00 00 00  ................
	0x2670 00 00 00 00 00 00 00 00 00 00 00 00 00 00 00 00  ................
	0x2680 00 00 00 00 00 00 00 00 00 00 00 00 00 00 00 00  ................
	0x2690 00 00 00 00 00 00 00 00 00 00 00 00 00 00 00 00  ................
	0x26a0 00 00 00 00 00 00 00 00 00 00 00 00 00 00 00 00  ................
	0x26b0 00 00 00 00 00 00 00 00 00 00 00 00 00 00 00 00  ................
	0x26c0 00 00 00 00 00 00 00 00 00 00 00 00 00 00 00 00  ................
	0x26d0 00 00 00 00 00 00 00 00 00 00 00 00 00 00 00 00  ................
	0x26e0 00 00 00 00 00 00 00 00 00 00 00 00 00 00 00 00  ................
	0x26f0 00 00 00 00 00 00 00 00 00 00 00 00 00 00 00 00  ................
	0x2700 00 00 00 00 00 00 00 00 00 00 00 00 00 00 00 00  ................
	0x2710 00 00 00 00 00 00 00 00 00 00 00 00 00 00 00 00  ................
	0x2720 00 00 00 00 00 00 00 00 00 00 00 00 00 00 00 00  ................
	0x2730 00 00 00 00 00 00 00 00 00 00 00 00 00 00 00 00  ................
	0x2740 00 00 00 00 00 00 00 00 00 00 00 00 00 00 00 00  ................
	0x2750 00 00 00 00 00 00 00 00 00 00 00 00 00 00 00 00  ................
	0x2760 00 00 00 00 00 00 00 00 00 00 00 00 00 00 00 00  ................
	0x2770 00 00 00 00 00 00 00 00 00 00 00 00 00 00 00 00  ................
	0x2780 00 00 00 00 00 00 00 00 00 00 00 00 00 00 00 00  ................
	0x2790 00 00 00 00 00 00 00 00 00 00 00 00 00 00 00 00  ................
	0x27a0 00 00 00 00 00 00 00 00 00 00 00 00 00 00 00 00  ................
	0x27b0 00 00 00 00 00 00 00 00 00 00 00 00 00 00 00 00  ................
	0x27c0 00 00 00 00 00 00 00 00 00 00 00 00 00 00 00 00  ................
	0x27d0 00 00 00 00 00 00 00 00 00 00 00 00 00 00 00 00  ................
	0x27e0 00 00 00 00 00 00 00 00 00 00 00 00 00 00 00 00  ................
	0x27f0 00 00 00 00 00 00 00 00 00 00 00 00 00 00 00 00  ................
	0x2800 00 00 00 00 00 00 00 00 00 00 00 00 00 00 00 00  ................
	0x2810 00 00 00 00 00 00 00 00 00 00 00 00 00 00 00 00  ................
	0x2820 00 00 00 00 00 00 00 00 00 00 00 00 00 00 00 00  ................
	0x2830 00 00 00 00 00 00 00 00 00 00 00 00 00 00 00 00  ................
	0x2840 00 00 00 00 00 00 00 00 00 00 00 00 00 00 00 00  ................
	0x2850 00 00 00 00 00 00 00 00 00 00 00 00 00 00 00 00  ................
	0x2860 00 00 00 00 00 00 00 00 00 00 00 00 00 00 00 00  ................
	0x2870 00 00 00 00 00 00 00 00 00 00 00 00 00 00 00 00  ................
	0x2880 00 00 00 00 00 00 00 00 00 00 00 00 00 00 00 00  ................
	0x2890 00 00 00 00 00 00 00 00 00 00 00 00 00 00 00 00  ................
	0x28a0 00 00 00 00 00 00 00 00 00 00 00 00 00 00 00 00  ................
	0x28b0 00 00 00 00 00 00 00 00 00 00 00 00 00 00 00 00  ................
	0x28c0 00 00 00 00 00 00 00 00 00 00 00 00 00 00 00 00  ................
	0x28d0 00 00 00 00 00 00 00 00 00 00 00 00 00 00 00 00  ................
	0x28e0 00 00 00 00 00 00 00 00 00 00 00 00 00 00 00 00  ................
	0x28f0 00 00 00 00 00 00 00 00 00 00 00 00 00 00 00 00  ................
	0x2900 00 00 00 00 00 00 00 00 00 00 00 00 00 00 00 00  ................
	0x2910 00 00 00 00 00 00 00 00 00 00 00 00 00 00 00 00  ................
	0x2920 00 00 00 00 00 00 00 00 00 00 00 00 00 00 00 00  ................
	0x2930 00 00 00 00 00 00 00 00 00 00 00 00 00 00 00 00  ................
	0x2940 00 00 00 00 00 00 00 00 00 00 00 00 00 00 00 00  ................
	0x2950 00 00 00 00 00 00 00 00 00 00 00 00 00 00 00 00  ................
	0x2960 00 00 00 00 00 00 00 00 00 00 00 00 00 00 00 00  ................
	0x2970 00 00 00 00 00 00 00 00 00 00 00 00 00 00 00 00  ................
	0x2980 00 00 00 00 00 00 00 00 00 00 00 00 00 00 00 00  ................
	0x2990 00 00 00 00 00 00 00 00 00 00 00 00 00 00 00 00  ................
	0x29a0 00 00 00 00 00 00 00 00 00 00 00 00 00 00 00 00  ................
	0x29b0 00 00 00 00 00 00 00 00 00 00 00 00 00 00 00 00  ................
	0x29c0 00 00 00 00 00 00 00 00 00 00 00 00 00 00 00 00  ................
	0x29d0 00 00 00 00 00 00 00 00 00 00 00 00 00 00 00 00  ................
	0x29e0 00 00 00 00 00 00 00 00 00 00 00 00 00 00 00 00  ................
	0x29f0 00 00 00 00 00 00 00 00 00 00 00 00 00 00 00 00  ................
	0x2a00 00 00 00 00 00 00 00 00 00 00 00 00 00 00 00 00  ................
	0x2a10 00 00 00 00 00 00 00 00 00 00 00 00 00 00 00 00  ................
	0x2a20 00 00 00 00 00 00 00 00 00 00 00 00 00 00 00 00  ................
	0x2a30 00 00 00 00 00 00 00 00 00 00 00 00 00 00 00 00  ................
	0x2a40 00 00 00 00 00 00 00 00 00 00 00 00 00 00 00 00  ................
	0x2a50 00 00 00 00 00 00 00 00 00 00 00 00 00 00 00 00  ................
	0x2a60 00 00 00 00 00 00 00 00 00 00 00 00 00 00 00 00  ................
	0x2a70 00 00 00 00 00 00 00 00 00 00 00 00 00 00 00 00  ................
	0x2a80 00 00 00 00 00 00 00 00 00 00 00 00 00 00 00 00  ................
	0x2a90 00 00 00 00 00 00 00 00 00 00 00 00 00 00 00 00  ................
	0x2aa0 00 00 00 00 00 00 00 00 00 00 00 00 00 00 00 00  ................
	0x2ab0 00 00 00 00 00 00 00 00 00 00 00 00 00 00 00 00  ................
	0x2ac0 00 00 00 00 00 00 00 00 00 00 00 00 00 00 00 00  ................
	0x2ad0 00 00 00 00 00 00 00 00 00 00 00 00 00 00 00 00  ................
	0x2ae0 00 00 00 00 00 00 00 00 00 00 00 00 00 00 00 00  ................
	0x2af0 00 00 00 00 00 00 00 00 00 00 00 00 00 00 00 00  ................
	0x2b00 00 00 00 00 00 00 00 00 00 00 00 00 00 00 00 00  ................
	0x2b10 00 00 00 00 00 00 00 00 00 00 00 00 00 00 00 00  ................
	0x2b20 00 00 00 00 00 00 00 00 00 00 00 00 00 00 00 00  ................
	0x2b30 00 00 00 00 00 00 00 00 00 00 00 00 00 00 00 00  ................
	0x2b40 00 00 00 00 00 00 00 00 00 00 00 00 00 00 00 00  ................
	0x2b50 00 00 00 00 00 00 00 00 00 00 00 00 00 00 00 00  ................
	0x2b60 00 00 00 00 00 00 00 00 00 00 00 00 00 00 00 00  ................
	0x2b70 00 00 00 00 00 00 00 00 00 00 00 00 00 00 00 00  ................
	0x2b80 00 00 00 00 00 00 00 00 00 00 00 00 00 00 00 00  ................
	0x2b90 00 00 00 00 00 00 00 00 00 00 00 00 00 00 00 00  ................
	0x2ba0 00 00 00 00 00 00 00 00 00 00 00 00 00 00 00 00  ................
	0x2bb0 00 00 00 00 00 00 00 00 00 00 00 00 00 00 00 00  ................
	0x2bc0 00 00 00 00 00 00 00 00 00 00 00 00 00 00 00 00  ................
	0x2bd0 00 00 00 00 00 00 00 00 00 00 00 00 00 00 00 00  ................
	0x2be0 00 00 00 00 00 00 00 00 00 00 00 00 00 00 00 00  ................
	0x2bf0 00 00 00 00 00 00 00 00 00 00 00 00 00 00 00 00  ................
	0x2c00 00 00 00 00 00 00 00 00 00 00 00 00 00 00 00 00  ................
	0x2c10 00 00 00 00 00 00 00 00 00 00 00 00 00 00 00 00  ................
<unlinkable>.AOS_TotalWeightOfIndividualItems_RangeLoopValue.stkobj SRODATA static size=24
	0x0000 01 00 00 00 00 00 00 00 30 d5 fa ff d0 2a 05 00  ........0....*..
	0x0010 30 d5 fa ff 00 00 00 00                          0.......
	rel 20+4 t=R_ADDROFF type:.gcprog.[15]<unlinkable>.AOSItem+0
<unlinkable>.AOS_TotalWeightOfIndividualItems_RangeLoopValue.arginfo1 SRODATA static dupok size=3
	0x0000 00 08 ff                                         ...
<unlinkable>.AOS_TotalWeightOfIndividualItems_RangeLoopValue.argliveinfo SRODATA static dupok size=2
	0x0000 00 00                                            ..
<unlinkable>.AOS_TotalWeightOfIndividualItems_RangeLoopIndex.arginfo1 SRODATA static dupok size=3
	0x0000 00 08 ff                                         ...
<unlinkable>.AOS_TotalWeightOfIndividualItems_RangeLoopIndex.argliveinfo SRODATA static dupok size=2
	0x0000 00 00                                            ..
<unlinkable>.AOS_TotalWeightOfIndividualItems.arginfo1 SRODATA static dupok size=3
	0x0000 00 08 ff                                         ...
<unlinkable>.AOS_TotalWeightOfIndividualItems.argliveinfo SRODATA static dupok size=2
	0x0000 00 00                                            ..
<unlinkable>.AOS_TotalWeightOfInventory.arginfo1 SRODATA static dupok size=3
	0x0000 00 08 ff                                         ...
<unlinkable>.AOS_TotalWeightOfInventory.argliveinfo SRODATA static dupok size=2
	0x0000 00 00                                            ..
<unlinkable>.SWA_TotalWeightOfIndividualItems.arginfo1 SRODATA static dupok size=3
	0x0000 00 08 ff                                         ...
<unlinkable>.SWA_TotalWeightOfIndividualItems.argliveinfo SRODATA static dupok size=2
	0x0000 00 00                                            ..
<unlinkable>.SWA_TotalWeightOfIndividualItems_RangeLoopValue.arginfo1 SRODATA static dupok size=3
	0x0000 00 08 ff                                         ...
<unlinkable>.SWA_TotalWeightOfIndividualItems_RangeLoopValue.argliveinfo SRODATA static dupok size=2
	0x0000 00 00                                            ..
<unlinkable>.SWA_TotalWeightOfIndividualItems_RangeLoopIndex.arginfo1 SRODATA static dupok size=3
	0x0000 00 08 ff                                         ...
<unlinkable>.SWA_TotalWeightOfIndividualItems_RangeLoopIndex.argliveinfo SRODATA static dupok size=2
	0x0000 00 00                                            ..
<unlinkable>.SWA_TotalWeightOfInventory.arginfo1 SRODATA static dupok size=3
	0x0000 00 08 ff                                         ...
<unlinkable>.SWA_TotalWeightOfInventory.argliveinfo SRODATA static dupok size=2
	0x0000 00 00                                            ..
gclocals·TjPuuCwdlCpTaRQGRKTrYw== SRODATA dupok size=10
	0x0000 02 00 00 00 02 00 00 00 03 00                    ..........
type:.eq.<unlinkable>.AOSItem.arginfo1 SRODATA static dupok size=5
	0x0000 00 08 08 08 ff                                   .....
type:.eq.<unlinkable>.AOSItem.argliveinfo SRODATA static dupok size=2
	0x0000 00 00                                            ..
type:.eq.<unlinkable>.OOPItem.arginfo1 SRODATA static dupok size=5
	0x0000 00 08 08 08 ff                                   .....
type:.eq.<unlinkable>.OOPItem.argliveinfo SRODATA static dupok size=2
	0x0000 00 00                                            ..
type:.eq.<unlinkable>.AOSInventory.arginfo1 SRODATA static dupok size=5
	0x0000 00 08 08 08 ff                                   .....
type:.eq.<unlinkable>.AOSInventory.argliveinfo SRODATA static dupok size=2
	0x0000 00 00                                            ..
type:.eq.[15]<unlinkable>.AOSItem.arginfo1 SRODATA static dupok size=3
	0x0000 08 08 ff                                         ...
type:.eq.[15]<unlinkable>.AOSItem.argliveinfo SRODATA static dupok size=2
	0x0000 00 00                                            ..
type:.eq.<unlinkable>.SWAInventory.arginfo1 SRODATA static dupok size=5
	0x0000 00 08 08 08 ff                                   .....
type:.eq.<unlinkable>.SWAInventory.argliveinfo SRODATA static dupok size=2
	0x0000 00 00                                            ..
type:.eq.[15]string.arginfo1 SRODATA static dupok size=3
	0x0000 08 08 ff                                         ...
type:.eq.[15]string.argliveinfo SRODATA static dupok size=2
	0x0000 00 00                                            ..
